ARM GAS  /tmp/cccd70Af.s 			page 1


   1              		.syntax unified
   2              		.cpu cortex-m4
   3              		.eabi_attribute 27, 3
   4              		.fpu fpv4-sp-d16
   5              		.eabi_attribute 20, 1
   6              		.eabi_attribute 21, 1
   7              		.eabi_attribute 23, 3
   8              		.eabi_attribute 24, 1
   9              		.eabi_attribute 25, 1
  10              		.eabi_attribute 26, 1
  11              		.eabi_attribute 30, 6
  12              		.eabi_attribute 34, 1
  13              		.eabi_attribute 18, 4
  14              		.thumb
  15              		.file	"stm32f3xx_hal_i2c.c"
  16              		.text
  17              	.Ltext0:
  18              		.cfi_sections	.debug_frame
  19              		.section	.text.HAL_I2C_Init,"ax",%progbits
  20              		.align	2
  21              		.global	HAL_I2C_Init
  22              		.thumb
  23              		.thumb_func
  25              	HAL_I2C_Init:
  26              	.LFB125:
  27              		.file 1 "Drivers/STM32F3xx_HAL_Driver/Src/stm32f3xx_hal_i2c.c"
   1:Drivers/STM32F3xx_HAL_Driver/Src/stm32f3xx_hal_i2c.c **** /**
   2:Drivers/STM32F3xx_HAL_Driver/Src/stm32f3xx_hal_i2c.c ****   ******************************************************************************
   3:Drivers/STM32F3xx_HAL_Driver/Src/stm32f3xx_hal_i2c.c ****   * @file    stm32f3xx_hal_i2c.c
   4:Drivers/STM32F3xx_HAL_Driver/Src/stm32f3xx_hal_i2c.c ****   * @author  MCD Application Team
   5:Drivers/STM32F3xx_HAL_Driver/Src/stm32f3xx_hal_i2c.c ****   * @version V1.2.1
   6:Drivers/STM32F3xx_HAL_Driver/Src/stm32f3xx_hal_i2c.c ****   * @date    29-April-2015
   7:Drivers/STM32F3xx_HAL_Driver/Src/stm32f3xx_hal_i2c.c ****   * @brief   I2C HAL module driver.
   8:Drivers/STM32F3xx_HAL_Driver/Src/stm32f3xx_hal_i2c.c ****   *          This file provides firmware functions to manage the following 
   9:Drivers/STM32F3xx_HAL_Driver/Src/stm32f3xx_hal_i2c.c ****   *          functionalities of the Inter Integrated Circuit (I2C) peripheral:
  10:Drivers/STM32F3xx_HAL_Driver/Src/stm32f3xx_hal_i2c.c ****   *           + Initialization and de-initialization functions
  11:Drivers/STM32F3xx_HAL_Driver/Src/stm32f3xx_hal_i2c.c ****   *           + IO operation functions
  12:Drivers/STM32F3xx_HAL_Driver/Src/stm32f3xx_hal_i2c.c ****   *           + Peripheral State and Errors functions
  13:Drivers/STM32F3xx_HAL_Driver/Src/stm32f3xx_hal_i2c.c ****   *         
  14:Drivers/STM32F3xx_HAL_Driver/Src/stm32f3xx_hal_i2c.c ****   @verbatim
  15:Drivers/STM32F3xx_HAL_Driver/Src/stm32f3xx_hal_i2c.c ****   ==============================================================================
  16:Drivers/STM32F3xx_HAL_Driver/Src/stm32f3xx_hal_i2c.c ****                         ##### How to use this driver #####
  17:Drivers/STM32F3xx_HAL_Driver/Src/stm32f3xx_hal_i2c.c ****   ==============================================================================
  18:Drivers/STM32F3xx_HAL_Driver/Src/stm32f3xx_hal_i2c.c ****     [..]
  19:Drivers/STM32F3xx_HAL_Driver/Src/stm32f3xx_hal_i2c.c ****     The I2C HAL driver can be used as follows:
  20:Drivers/STM32F3xx_HAL_Driver/Src/stm32f3xx_hal_i2c.c ****     
  21:Drivers/STM32F3xx_HAL_Driver/Src/stm32f3xx_hal_i2c.c ****     (#) Declare a I2C_HandleTypeDef handle structure, for example:
  22:Drivers/STM32F3xx_HAL_Driver/Src/stm32f3xx_hal_i2c.c ****         I2C_HandleTypeDef  hi2c; 
  23:Drivers/STM32F3xx_HAL_Driver/Src/stm32f3xx_hal_i2c.c **** 
  24:Drivers/STM32F3xx_HAL_Driver/Src/stm32f3xx_hal_i2c.c ****     (#)Initialize the I2C low level resources by implementing the HAL_I2C_MspInit() API:
  25:Drivers/STM32F3xx_HAL_Driver/Src/stm32f3xx_hal_i2c.c ****         (##) Enable the I2Cx interface clock
  26:Drivers/STM32F3xx_HAL_Driver/Src/stm32f3xx_hal_i2c.c ****         (##) I2C pins configuration
  27:Drivers/STM32F3xx_HAL_Driver/Src/stm32f3xx_hal_i2c.c ****             (+++) Enable the clock for the I2C GPIOs
  28:Drivers/STM32F3xx_HAL_Driver/Src/stm32f3xx_hal_i2c.c ****             (+++) Configure I2C pins as alternate function open-drain
  29:Drivers/STM32F3xx_HAL_Driver/Src/stm32f3xx_hal_i2c.c ****         (##) NVIC configuration if you need to use interrupt process
  30:Drivers/STM32F3xx_HAL_Driver/Src/stm32f3xx_hal_i2c.c ****             (+++) Configure the I2Cx interrupt priority
  31:Drivers/STM32F3xx_HAL_Driver/Src/stm32f3xx_hal_i2c.c ****             (+++) Enable the NVIC I2C IRQ Channel
ARM GAS  /tmp/cccd70Af.s 			page 2


  32:Drivers/STM32F3xx_HAL_Driver/Src/stm32f3xx_hal_i2c.c ****         (##) DMA Configuration if you need to use DMA process
  33:Drivers/STM32F3xx_HAL_Driver/Src/stm32f3xx_hal_i2c.c ****             (+++) Declare a DMA_HandleTypeDef handle structure for the transmit or receive channel
  34:Drivers/STM32F3xx_HAL_Driver/Src/stm32f3xx_hal_i2c.c ****             (+++) Enable the DMAx interface clock using
  35:Drivers/STM32F3xx_HAL_Driver/Src/stm32f3xx_hal_i2c.c ****             (+++) Configure the DMA handle parameters
  36:Drivers/STM32F3xx_HAL_Driver/Src/stm32f3xx_hal_i2c.c ****             (+++) Configure the DMA Tx or Rx channel
  37:Drivers/STM32F3xx_HAL_Driver/Src/stm32f3xx_hal_i2c.c ****             (+++) Associate the initialized DMA handle to the hi2c DMA Tx or Rx handle
  38:Drivers/STM32F3xx_HAL_Driver/Src/stm32f3xx_hal_i2c.c ****             (+++) Configure the priority and enable the NVIC for the transfer complete interrupt on
  39:Drivers/STM32F3xx_HAL_Driver/Src/stm32f3xx_hal_i2c.c ****                   the DMA Tx or Rx channel
  40:Drivers/STM32F3xx_HAL_Driver/Src/stm32f3xx_hal_i2c.c **** 
  41:Drivers/STM32F3xx_HAL_Driver/Src/stm32f3xx_hal_i2c.c ****     (#) Configure the Communication Clock Timing, Own Address1, Master Addressing mode, Dual Addres
  42:Drivers/STM32F3xx_HAL_Driver/Src/stm32f3xx_hal_i2c.c ****         Own Address2, Own Address2 Mask, General call and Nostretch mode in the hi2c Init structure
  43:Drivers/STM32F3xx_HAL_Driver/Src/stm32f3xx_hal_i2c.c **** 
  44:Drivers/STM32F3xx_HAL_Driver/Src/stm32f3xx_hal_i2c.c ****     (#) Initialize the I2C registers by calling the HAL_I2C_Init(), configures also the low level H
  45:Drivers/STM32F3xx_HAL_Driver/Src/stm32f3xx_hal_i2c.c ****         (GPIO, CLOCK, NVIC...etc) by calling the customized HAL_I2C_MspInit(&hi2c) API.
  46:Drivers/STM32F3xx_HAL_Driver/Src/stm32f3xx_hal_i2c.c **** 
  47:Drivers/STM32F3xx_HAL_Driver/Src/stm32f3xx_hal_i2c.c ****     (#) To check if target device is ready for communication, use the function HAL_I2C_IsDeviceRead
  48:Drivers/STM32F3xx_HAL_Driver/Src/stm32f3xx_hal_i2c.c **** 
  49:Drivers/STM32F3xx_HAL_Driver/Src/stm32f3xx_hal_i2c.c ****     (#) For I2C IO and IO MEM operations, three operation modes are available within this driver :
  50:Drivers/STM32F3xx_HAL_Driver/Src/stm32f3xx_hal_i2c.c **** 
  51:Drivers/STM32F3xx_HAL_Driver/Src/stm32f3xx_hal_i2c.c ****     *** Polling mode IO operation ***
  52:Drivers/STM32F3xx_HAL_Driver/Src/stm32f3xx_hal_i2c.c ****     =================================
  53:Drivers/STM32F3xx_HAL_Driver/Src/stm32f3xx_hal_i2c.c ****     [..]
  54:Drivers/STM32F3xx_HAL_Driver/Src/stm32f3xx_hal_i2c.c ****       (+) Transmit in master mode an amount of data in blocking mode using HAL_I2C_Master_Transmit(
  55:Drivers/STM32F3xx_HAL_Driver/Src/stm32f3xx_hal_i2c.c ****       (+) Receive in master mode an amount of data in blocking mode using HAL_I2C_Master_Receive()
  56:Drivers/STM32F3xx_HAL_Driver/Src/stm32f3xx_hal_i2c.c ****       (+) Transmit in slave mode an amount of data in blocking mode using HAL_I2C_Slave_Transmit()
  57:Drivers/STM32F3xx_HAL_Driver/Src/stm32f3xx_hal_i2c.c ****       (+) Receive in slave mode an amount of data in blocking mode using HAL_I2C_Slave_Receive()
  58:Drivers/STM32F3xx_HAL_Driver/Src/stm32f3xx_hal_i2c.c **** 
  59:Drivers/STM32F3xx_HAL_Driver/Src/stm32f3xx_hal_i2c.c ****     *** Polling mode IO MEM operation ***
  60:Drivers/STM32F3xx_HAL_Driver/Src/stm32f3xx_hal_i2c.c ****     =====================================
  61:Drivers/STM32F3xx_HAL_Driver/Src/stm32f3xx_hal_i2c.c ****     [..]
  62:Drivers/STM32F3xx_HAL_Driver/Src/stm32f3xx_hal_i2c.c ****       (+) Write an amount of data in blocking mode to a specific memory address using HAL_I2C_Mem_W
  63:Drivers/STM32F3xx_HAL_Driver/Src/stm32f3xx_hal_i2c.c ****       (+) Read an amount of data in blocking mode from a specific memory address using HAL_I2C_Mem_
  64:Drivers/STM32F3xx_HAL_Driver/Src/stm32f3xx_hal_i2c.c **** 
  65:Drivers/STM32F3xx_HAL_Driver/Src/stm32f3xx_hal_i2c.c **** 
  66:Drivers/STM32F3xx_HAL_Driver/Src/stm32f3xx_hal_i2c.c ****     *** Interrupt mode IO operation ***
  67:Drivers/STM32F3xx_HAL_Driver/Src/stm32f3xx_hal_i2c.c ****     ===================================
  68:Drivers/STM32F3xx_HAL_Driver/Src/stm32f3xx_hal_i2c.c ****     [..]
  69:Drivers/STM32F3xx_HAL_Driver/Src/stm32f3xx_hal_i2c.c ****       (+) Transmit in master mode an amount of data in non-blocking mode using HAL_I2C_Master_Trans
  70:Drivers/STM32F3xx_HAL_Driver/Src/stm32f3xx_hal_i2c.c ****       (+) At transmission end of transfer, HAL_I2C_MasterTxCpltCallback() is executed and user can
  71:Drivers/STM32F3xx_HAL_Driver/Src/stm32f3xx_hal_i2c.c ****            add his own code by customization of function pointer HAL_I2C_MasterTxCpltCallback()
  72:Drivers/STM32F3xx_HAL_Driver/Src/stm32f3xx_hal_i2c.c ****       (+) Receive in master mode an amount of data in non-blocking mode using HAL_I2C_Master_Receiv
  73:Drivers/STM32F3xx_HAL_Driver/Src/stm32f3xx_hal_i2c.c ****       (+) At reception end of transfer, HAL_I2C_MasterRxCpltCallback() is executed and user can
  74:Drivers/STM32F3xx_HAL_Driver/Src/stm32f3xx_hal_i2c.c ****            add his own code by customization of function pointer HAL_I2C_MasterRxCpltCallback()
  75:Drivers/STM32F3xx_HAL_Driver/Src/stm32f3xx_hal_i2c.c ****       (+) Transmit in slave mode an amount of data in non-blocking mode using HAL_I2C_Slave_Transmi
  76:Drivers/STM32F3xx_HAL_Driver/Src/stm32f3xx_hal_i2c.c ****       (+) At transmission end of transfer, HAL_I2C_SlaveTxCpltCallback() is executed and user can
  77:Drivers/STM32F3xx_HAL_Driver/Src/stm32f3xx_hal_i2c.c ****            add his own code by customization of function pointer HAL_I2C_SlaveTxCpltCallback()
  78:Drivers/STM32F3xx_HAL_Driver/Src/stm32f3xx_hal_i2c.c ****       (+) Receive in slave mode an amount of data in non-blocking mode using HAL_I2C_Slave_Receive_
  79:Drivers/STM32F3xx_HAL_Driver/Src/stm32f3xx_hal_i2c.c ****       (+) At reception end of transfer, HAL_I2C_SlaveRxCpltCallback() is executed and user can
  80:Drivers/STM32F3xx_HAL_Driver/Src/stm32f3xx_hal_i2c.c ****            add his own code by customization of function pointer HAL_I2C_SlaveRxCpltCallback()
  81:Drivers/STM32F3xx_HAL_Driver/Src/stm32f3xx_hal_i2c.c ****       (+) In case of transfer Error, HAL_I2C_ErrorCallback() function is executed and user can
  82:Drivers/STM32F3xx_HAL_Driver/Src/stm32f3xx_hal_i2c.c ****            add his own code by customization of function pointer HAL_I2C_ErrorCallback()
  83:Drivers/STM32F3xx_HAL_Driver/Src/stm32f3xx_hal_i2c.c ****       (+) Abort a master I2C process communication with Interrupt using HAL_I2C_Master_Abort_IT()
  84:Drivers/STM32F3xx_HAL_Driver/Src/stm32f3xx_hal_i2c.c ****       (+) End of abort process, HAL_I2C_AbortCpltCallback() is executed and user can
  85:Drivers/STM32F3xx_HAL_Driver/Src/stm32f3xx_hal_i2c.c ****            add his own code by customization of function pointer HAL_I2C_AbortCpltCallback()
  86:Drivers/STM32F3xx_HAL_Driver/Src/stm32f3xx_hal_i2c.c ****       (+) Discard a slave I2C process communication using __HAL_I2C_GENERATE_NACK() macro.
  87:Drivers/STM32F3xx_HAL_Driver/Src/stm32f3xx_hal_i2c.c ****            This action will inform Master to generate a Stop condition to discard the communication
  88:Drivers/STM32F3xx_HAL_Driver/Src/stm32f3xx_hal_i2c.c **** 
ARM GAS  /tmp/cccd70Af.s 			page 3


  89:Drivers/STM32F3xx_HAL_Driver/Src/stm32f3xx_hal_i2c.c **** 
  90:Drivers/STM32F3xx_HAL_Driver/Src/stm32f3xx_hal_i2c.c ****     *** Interrupt mode IO sequential operation ***
  91:Drivers/STM32F3xx_HAL_Driver/Src/stm32f3xx_hal_i2c.c ****     ===================================
  92:Drivers/STM32F3xx_HAL_Driver/Src/stm32f3xx_hal_i2c.c ****     [..]
  93:Drivers/STM32F3xx_HAL_Driver/Src/stm32f3xx_hal_i2c.c ****       (@) These interfaces allow to manage a sequential transfer with a repeated start condition
  94:Drivers/STM32F3xx_HAL_Driver/Src/stm32f3xx_hal_i2c.c ****           when a direction change during transfer
  95:Drivers/STM32F3xx_HAL_Driver/Src/stm32f3xx_hal_i2c.c ****     [..]
  96:Drivers/STM32F3xx_HAL_Driver/Src/stm32f3xx_hal_i2c.c ****       (+) A specific option field manage the different steps of a sequential transfer
  97:Drivers/STM32F3xx_HAL_Driver/Src/stm32f3xx_hal_i2c.c ****       (+) Option field values are defined through @ref I2C_XFEROPTIONS and are listed below:
  98:Drivers/STM32F3xx_HAL_Driver/Src/stm32f3xx_hal_i2c.c ****       (++) I2C_FIRST_AND_LAST_FRAME: No sequential usage, functionnal is same as associated interfa
  99:Drivers/STM32F3xx_HAL_Driver/Src/stm32f3xx_hal_i2c.c ****       (++) I2C_FIRST_FRAME: Sequential usage, this option allow to manage a sequence with start con
 100:Drivers/STM32F3xx_HAL_Driver/Src/stm32f3xx_hal_i2c.c ****                             and data to transfer without a final stop condition
 101:Drivers/STM32F3xx_HAL_Driver/Src/stm32f3xx_hal_i2c.c ****       (++) I2C_NEXT_FRAME: Sequential usage, this option allow to manage a sequence with a restart 
 102:Drivers/STM32F3xx_HAL_Driver/Src/stm32f3xx_hal_i2c.c ****                             and with new data to transfer if the direction change or manage only th
 103:Drivers/STM32F3xx_HAL_Driver/Src/stm32f3xx_hal_i2c.c ****                             if no direction change and without a final stop condition in both cases
 104:Drivers/STM32F3xx_HAL_Driver/Src/stm32f3xx_hal_i2c.c ****       (++) I2C_LAST_FRAME: Sequential usage, this option allow to manage a sequance with a restart 
 105:Drivers/STM32F3xx_HAL_Driver/Src/stm32f3xx_hal_i2c.c ****                             and with new data to transfer if the direction change or manage only th
 106:Drivers/STM32F3xx_HAL_Driver/Src/stm32f3xx_hal_i2c.c ****                             if no direction change and with a final stop condition in both cases
 107:Drivers/STM32F3xx_HAL_Driver/Src/stm32f3xx_hal_i2c.c **** 
 108:Drivers/STM32F3xx_HAL_Driver/Src/stm32f3xx_hal_i2c.c ****       (+) Differents sequential I2C interfaces are listed below:
 109:Drivers/STM32F3xx_HAL_Driver/Src/stm32f3xx_hal_i2c.c ****       (++) Sequential transmit in master I2C mode an amount of data in non-blocking mode using HAL_
 110:Drivers/STM32F3xx_HAL_Driver/Src/stm32f3xx_hal_i2c.c ****       (+++) At transmission end of current frame transfer, HAL_I2C_MasterTxCpltCallback() is execut
 111:Drivers/STM32F3xx_HAL_Driver/Src/stm32f3xx_hal_i2c.c ****            add his own code by customization of function pointer HAL_I2C_MasterTxCpltCallback()
 112:Drivers/STM32F3xx_HAL_Driver/Src/stm32f3xx_hal_i2c.c ****       (++) Sequential receive in master I2C mode an amount of data in non-blocking mode using HAL_I
 113:Drivers/STM32F3xx_HAL_Driver/Src/stm32f3xx_hal_i2c.c ****       (+++) At reception end of current frame transfer, HAL_I2C_MasterRxCpltCallback() is executed 
 114:Drivers/STM32F3xx_HAL_Driver/Src/stm32f3xx_hal_i2c.c ****            add his own code by customization of function pointer HAL_I2C_MasterRxCpltCallback()
 115:Drivers/STM32F3xx_HAL_Driver/Src/stm32f3xx_hal_i2c.c ****       (++) Abort a master I2C process communication with Interrupt using HAL_I2C_Master_Abort_IT()
 116:Drivers/STM32F3xx_HAL_Driver/Src/stm32f3xx_hal_i2c.c ****       (+++) End of abort process, HAL_I2C_AbortCpltCallback() is executed and user can
 117:Drivers/STM32F3xx_HAL_Driver/Src/stm32f3xx_hal_i2c.c ****            add his own code by customization of function pointer HAL_I2C_AbortCpltCallback()
 118:Drivers/STM32F3xx_HAL_Driver/Src/stm32f3xx_hal_i2c.c ****       (+++) mean HAL_I2C_MasterTxCpltCallback() in case of previous state was master transmit
 119:Drivers/STM32F3xx_HAL_Driver/Src/stm32f3xx_hal_i2c.c ****       (+++) mean HAL_I2c_MasterRxCpltCallback() in case of previous state was master receive
 120:Drivers/STM32F3xx_HAL_Driver/Src/stm32f3xx_hal_i2c.c ****       (++) Enable/disable the Address listen mode in slave I2C mode using HAL_I2C_EnableListen_IT()
 121:Drivers/STM32F3xx_HAL_Driver/Src/stm32f3xx_hal_i2c.c ****       (+++) When address slave I2C match, HAL_I2C_AddrCallback() is executed and user can
 122:Drivers/STM32F3xx_HAL_Driver/Src/stm32f3xx_hal_i2c.c ****            add his own code to check the Address Match Code and the transmission direction request 
 123:Drivers/STM32F3xx_HAL_Driver/Src/stm32f3xx_hal_i2c.c ****       (+++) At Listen mode end HAL_I2C_ListenCpltCallback() is executed and user can
 124:Drivers/STM32F3xx_HAL_Driver/Src/stm32f3xx_hal_i2c.c ****            add his own code by customization of function pointer HAL_I2C_ListenCpltCallback()
 125:Drivers/STM32F3xx_HAL_Driver/Src/stm32f3xx_hal_i2c.c ****       (++) Sequential transmit in slave I2C mode an amount of data in non-blocking mode using HAL_I
 126:Drivers/STM32F3xx_HAL_Driver/Src/stm32f3xx_hal_i2c.c ****       (+++) At transmission end of current frame transfer, HAL_I2C_SlaveTxCpltCallback() is execute
 127:Drivers/STM32F3xx_HAL_Driver/Src/stm32f3xx_hal_i2c.c ****            add his own code by customization of function pointer HAL_I2C_SlaveTxCpltCallback()
 128:Drivers/STM32F3xx_HAL_Driver/Src/stm32f3xx_hal_i2c.c ****       (++) Sequential receive in slave I2C mode an amount of data in non-blocking mode using HAL_I2
 129:Drivers/STM32F3xx_HAL_Driver/Src/stm32f3xx_hal_i2c.c ****       (+++) At reception end of current frame transfer, HAL_I2C_SlaveRxCpltCallback() is executed a
 130:Drivers/STM32F3xx_HAL_Driver/Src/stm32f3xx_hal_i2c.c ****            add his own code by customization of function pointer HAL_I2C_SlaveRxCpltCallback()
 131:Drivers/STM32F3xx_HAL_Driver/Src/stm32f3xx_hal_i2c.c ****       (++) In case of transfer Error, HAL_I2C_ErrorCallback() function is executed and user can
 132:Drivers/STM32F3xx_HAL_Driver/Src/stm32f3xx_hal_i2c.c ****            add his own code by customization of function pointer HAL_I2C_ErrorCallback()
 133:Drivers/STM32F3xx_HAL_Driver/Src/stm32f3xx_hal_i2c.c ****       (++) Abort a master I2C process communication with Interrupt using HAL_I2C_Master_Abort_IT()
 134:Drivers/STM32F3xx_HAL_Driver/Src/stm32f3xx_hal_i2c.c ****       (++) End of abort process, HAL_I2C_AbortCpltCallback() is executed and user can
 135:Drivers/STM32F3xx_HAL_Driver/Src/stm32f3xx_hal_i2c.c ****            add his own code by customization of function pointer HAL_I2C_AbortCpltCallback()
 136:Drivers/STM32F3xx_HAL_Driver/Src/stm32f3xx_hal_i2c.c ****       (++) Discard a slave I2C process communication using __HAL_I2C_GENERATE_NACK() macro.
 137:Drivers/STM32F3xx_HAL_Driver/Src/stm32f3xx_hal_i2c.c ****            This action will inform Master to generate a Stop condition to discard the communication
 138:Drivers/STM32F3xx_HAL_Driver/Src/stm32f3xx_hal_i2c.c **** 
 139:Drivers/STM32F3xx_HAL_Driver/Src/stm32f3xx_hal_i2c.c ****     *** Interrupt mode IO MEM operation ***
 140:Drivers/STM32F3xx_HAL_Driver/Src/stm32f3xx_hal_i2c.c ****     =======================================
 141:Drivers/STM32F3xx_HAL_Driver/Src/stm32f3xx_hal_i2c.c ****     [..]
 142:Drivers/STM32F3xx_HAL_Driver/Src/stm32f3xx_hal_i2c.c ****       (+) Write an amount of data in non-blocking mode with Interrupt to a specific memory address 
 143:Drivers/STM32F3xx_HAL_Driver/Src/stm32f3xx_hal_i2c.c ****           HAL_I2C_Mem_Write_IT()
 144:Drivers/STM32F3xx_HAL_Driver/Src/stm32f3xx_hal_i2c.c ****       (+) At Memory end of write transfer, HAL_I2C_MemTxCpltCallback() is executed and user can
 145:Drivers/STM32F3xx_HAL_Driver/Src/stm32f3xx_hal_i2c.c ****            add his own code by customization of function pointer HAL_I2C_MemTxCpltCallback()
ARM GAS  /tmp/cccd70Af.s 			page 4


 146:Drivers/STM32F3xx_HAL_Driver/Src/stm32f3xx_hal_i2c.c ****       (+) Read an amount of data in non-blocking mode with Interrupt from a specific memory address
 147:Drivers/STM32F3xx_HAL_Driver/Src/stm32f3xx_hal_i2c.c ****           HAL_I2C_Mem_Read_IT()
 148:Drivers/STM32F3xx_HAL_Driver/Src/stm32f3xx_hal_i2c.c ****       (+) At Memory end of read transfer, HAL_I2C_MemRxCpltCallback() is executed and user can
 149:Drivers/STM32F3xx_HAL_Driver/Src/stm32f3xx_hal_i2c.c ****            add his own code by customization of function pointer HAL_I2C_MemRxCpltCallback()
 150:Drivers/STM32F3xx_HAL_Driver/Src/stm32f3xx_hal_i2c.c ****       (+) In case of transfer Error, HAL_I2C_ErrorCallback() function is executed and user can
 151:Drivers/STM32F3xx_HAL_Driver/Src/stm32f3xx_hal_i2c.c ****            add his own code by customization of function pointer HAL_I2C_ErrorCallback()
 152:Drivers/STM32F3xx_HAL_Driver/Src/stm32f3xx_hal_i2c.c **** 
 153:Drivers/STM32F3xx_HAL_Driver/Src/stm32f3xx_hal_i2c.c ****     *** DMA mode IO operation ***
 154:Drivers/STM32F3xx_HAL_Driver/Src/stm32f3xx_hal_i2c.c ****     ==============================
 155:Drivers/STM32F3xx_HAL_Driver/Src/stm32f3xx_hal_i2c.c ****     [..]
 156:Drivers/STM32F3xx_HAL_Driver/Src/stm32f3xx_hal_i2c.c ****       (+) Transmit in master mode an amount of data in non-blocking mode (DMA) using
 157:Drivers/STM32F3xx_HAL_Driver/Src/stm32f3xx_hal_i2c.c ****           HAL_I2C_Master_Transmit_DMA()
 158:Drivers/STM32F3xx_HAL_Driver/Src/stm32f3xx_hal_i2c.c ****       (+) At transmission end of transfer, HAL_I2C_MasterTxCpltCallback() is executed and user can
 159:Drivers/STM32F3xx_HAL_Driver/Src/stm32f3xx_hal_i2c.c ****            add his own code by customization of function pointer HAL_I2C_MasterTxCpltCallback()
 160:Drivers/STM32F3xx_HAL_Driver/Src/stm32f3xx_hal_i2c.c ****       (+) Receive in master mode an amount of data in non-blocking mode (DMA) using
 161:Drivers/STM32F3xx_HAL_Driver/Src/stm32f3xx_hal_i2c.c ****           HAL_I2C_Master_Receive_DMA()
 162:Drivers/STM32F3xx_HAL_Driver/Src/stm32f3xx_hal_i2c.c ****       (+) At reception end of transfer, HAL_I2C_MasterRxCpltCallback() is executed and user can
 163:Drivers/STM32F3xx_HAL_Driver/Src/stm32f3xx_hal_i2c.c ****            add his own code by customization of function pointer HAL_I2C_MasterRxCpltCallback()
 164:Drivers/STM32F3xx_HAL_Driver/Src/stm32f3xx_hal_i2c.c ****       (+) Transmit in slave mode an amount of data in non-blocking mode (DMA) using
 165:Drivers/STM32F3xx_HAL_Driver/Src/stm32f3xx_hal_i2c.c ****           HAL_I2C_Slave_Transmit_DMA()
 166:Drivers/STM32F3xx_HAL_Driver/Src/stm32f3xx_hal_i2c.c ****       (+) At transmission end of transfer, HAL_I2C_SlaveTxCpltCallback() is executed and user can
 167:Drivers/STM32F3xx_HAL_Driver/Src/stm32f3xx_hal_i2c.c ****            add his own code by customization of function pointer HAL_I2C_SlaveTxCpltCallback()
 168:Drivers/STM32F3xx_HAL_Driver/Src/stm32f3xx_hal_i2c.c ****       (+) Receive in slave mode an amount of data in non-blocking mode (DMA) using
 169:Drivers/STM32F3xx_HAL_Driver/Src/stm32f3xx_hal_i2c.c ****           HAL_I2C_Slave_Receive_DMA()
 170:Drivers/STM32F3xx_HAL_Driver/Src/stm32f3xx_hal_i2c.c ****       (+) At reception end of transfer, HAL_I2C_SlaveRxCpltCallback() is executed and user can
 171:Drivers/STM32F3xx_HAL_Driver/Src/stm32f3xx_hal_i2c.c ****            add his own code by customization of function pointer HAL_I2C_SlaveRxCpltCallback()
 172:Drivers/STM32F3xx_HAL_Driver/Src/stm32f3xx_hal_i2c.c ****       (+) In case of transfer Error, HAL_I2C_ErrorCallback() function is executed and user can
 173:Drivers/STM32F3xx_HAL_Driver/Src/stm32f3xx_hal_i2c.c ****            add his own code by customization of function pointer HAL_I2C_ErrorCallback()
 174:Drivers/STM32F3xx_HAL_Driver/Src/stm32f3xx_hal_i2c.c ****       (+) Abort a master I2C process communication with Interrupt using HAL_I2C_Master_Abort_IT()
 175:Drivers/STM32F3xx_HAL_Driver/Src/stm32f3xx_hal_i2c.c ****       (+) End of abort process, HAL_I2C_AbortCpltCallback() is executed and user can
 176:Drivers/STM32F3xx_HAL_Driver/Src/stm32f3xx_hal_i2c.c ****            add his own code by customization of function pointer HAL_I2C_AbortCpltCallback()
 177:Drivers/STM32F3xx_HAL_Driver/Src/stm32f3xx_hal_i2c.c ****       (+) Discard a slave I2C process communication using __HAL_I2C_GENERATE_NACK() macro.
 178:Drivers/STM32F3xx_HAL_Driver/Src/stm32f3xx_hal_i2c.c ****            This action will inform Master to generate a Stop condition to discard the communication
 179:Drivers/STM32F3xx_HAL_Driver/Src/stm32f3xx_hal_i2c.c **** 
 180:Drivers/STM32F3xx_HAL_Driver/Src/stm32f3xx_hal_i2c.c ****     *** DMA mode IO MEM operation ***
 181:Drivers/STM32F3xx_HAL_Driver/Src/stm32f3xx_hal_i2c.c ****     =================================
 182:Drivers/STM32F3xx_HAL_Driver/Src/stm32f3xx_hal_i2c.c ****     [..]
 183:Drivers/STM32F3xx_HAL_Driver/Src/stm32f3xx_hal_i2c.c ****       (+) Write an amount of data in non-blocking mode with DMA to a specific memory address using
 184:Drivers/STM32F3xx_HAL_Driver/Src/stm32f3xx_hal_i2c.c ****           HAL_I2C_Mem_Write_DMA()
 185:Drivers/STM32F3xx_HAL_Driver/Src/stm32f3xx_hal_i2c.c ****       (+) At Memory end of write transfer, HAL_I2C_MemTxCpltCallback() is executed and user can
 186:Drivers/STM32F3xx_HAL_Driver/Src/stm32f3xx_hal_i2c.c ****            add his own code by customization of function pointer HAL_I2C_MemTxCpltCallback()
 187:Drivers/STM32F3xx_HAL_Driver/Src/stm32f3xx_hal_i2c.c ****       (+) Read an amount of data in non-blocking mode with DMA from a specific memory address using
 188:Drivers/STM32F3xx_HAL_Driver/Src/stm32f3xx_hal_i2c.c ****           HAL_I2C_Mem_Read_DMA()
 189:Drivers/STM32F3xx_HAL_Driver/Src/stm32f3xx_hal_i2c.c ****       (+) At Memory end of read transfer, HAL_I2C_MemRxCpltCallback() is executed and user can
 190:Drivers/STM32F3xx_HAL_Driver/Src/stm32f3xx_hal_i2c.c ****            add his own code by customization of function pointer HAL_I2C_MemRxCpltCallback()
 191:Drivers/STM32F3xx_HAL_Driver/Src/stm32f3xx_hal_i2c.c ****       (+) In case of transfer Error, HAL_I2C_ErrorCallback() function is executed and user can
 192:Drivers/STM32F3xx_HAL_Driver/Src/stm32f3xx_hal_i2c.c ****            add his own code by customization of function pointer HAL_I2C_ErrorCallback()
 193:Drivers/STM32F3xx_HAL_Driver/Src/stm32f3xx_hal_i2c.c **** 
 194:Drivers/STM32F3xx_HAL_Driver/Src/stm32f3xx_hal_i2c.c **** 
 195:Drivers/STM32F3xx_HAL_Driver/Src/stm32f3xx_hal_i2c.c ****      *** I2C HAL driver macros list ***
 196:Drivers/STM32F3xx_HAL_Driver/Src/stm32f3xx_hal_i2c.c ****      ==================================
 197:Drivers/STM32F3xx_HAL_Driver/Src/stm32f3xx_hal_i2c.c ****      [..]
 198:Drivers/STM32F3xx_HAL_Driver/Src/stm32f3xx_hal_i2c.c ****        Below the list of most used macros in I2C HAL driver.
 199:Drivers/STM32F3xx_HAL_Driver/Src/stm32f3xx_hal_i2c.c **** 
 200:Drivers/STM32F3xx_HAL_Driver/Src/stm32f3xx_hal_i2c.c ****       (+) __HAL_I2C_ENABLE:      Enable the I2C peripheral
 201:Drivers/STM32F3xx_HAL_Driver/Src/stm32f3xx_hal_i2c.c ****       (+) __HAL_I2C_DISABLE:     Disable the I2C peripheral
 202:Drivers/STM32F3xx_HAL_Driver/Src/stm32f3xx_hal_i2c.c ****       (+) __HAL_I2C_GENERATE_NACK: Generate a Non-Acknowledge I2C peripheral in Slave mode
ARM GAS  /tmp/cccd70Af.s 			page 5


 203:Drivers/STM32F3xx_HAL_Driver/Src/stm32f3xx_hal_i2c.c ****       (+) __HAL_I2C_GET_FLAG:    Check whether the specified I2C flag is set or not
 204:Drivers/STM32F3xx_HAL_Driver/Src/stm32f3xx_hal_i2c.c ****       (+) __HAL_I2C_CLEAR_FLAG:  Clear the specified I2C pending flag
 205:Drivers/STM32F3xx_HAL_Driver/Src/stm32f3xx_hal_i2c.c ****       (+) __HAL_I2C_ENABLE_IT:   Enable the specified I2C interrupt
 206:Drivers/STM32F3xx_HAL_Driver/Src/stm32f3xx_hal_i2c.c ****       (+) __HAL_I2C_DISABLE_IT:  Disable the specified I2C interrupt
 207:Drivers/STM32F3xx_HAL_Driver/Src/stm32f3xx_hal_i2c.c **** 
 208:Drivers/STM32F3xx_HAL_Driver/Src/stm32f3xx_hal_i2c.c ****      [..]
 209:Drivers/STM32F3xx_HAL_Driver/Src/stm32f3xx_hal_i2c.c ****        (@) You can refer to the I2C HAL driver header file for more useful macros
 210:Drivers/STM32F3xx_HAL_Driver/Src/stm32f3xx_hal_i2c.c **** 
 211:Drivers/STM32F3xx_HAL_Driver/Src/stm32f3xx_hal_i2c.c ****   @endverbatim
 212:Drivers/STM32F3xx_HAL_Driver/Src/stm32f3xx_hal_i2c.c ****   ******************************************************************************
 213:Drivers/STM32F3xx_HAL_Driver/Src/stm32f3xx_hal_i2c.c ****   * @attention
 214:Drivers/STM32F3xx_HAL_Driver/Src/stm32f3xx_hal_i2c.c ****   *
 215:Drivers/STM32F3xx_HAL_Driver/Src/stm32f3xx_hal_i2c.c ****   * <h2><center>&copy; COPYRIGHT(c) 2016 STMicroelectronics</center></h2>
 216:Drivers/STM32F3xx_HAL_Driver/Src/stm32f3xx_hal_i2c.c ****   *
 217:Drivers/STM32F3xx_HAL_Driver/Src/stm32f3xx_hal_i2c.c ****   * Redistribution and use in source and binary forms, with or without modification,
 218:Drivers/STM32F3xx_HAL_Driver/Src/stm32f3xx_hal_i2c.c ****   * are permitted provided that the following conditions are met:
 219:Drivers/STM32F3xx_HAL_Driver/Src/stm32f3xx_hal_i2c.c ****   *   1. Redistributions of source code must retain the above copyright notice,
 220:Drivers/STM32F3xx_HAL_Driver/Src/stm32f3xx_hal_i2c.c ****   *      this list of conditions and the following disclaimer.
 221:Drivers/STM32F3xx_HAL_Driver/Src/stm32f3xx_hal_i2c.c ****   *   2. Redistributions in binary form must reproduce the above copyright notice,
 222:Drivers/STM32F3xx_HAL_Driver/Src/stm32f3xx_hal_i2c.c ****   *      this list of conditions and the following disclaimer in the documentation
 223:Drivers/STM32F3xx_HAL_Driver/Src/stm32f3xx_hal_i2c.c ****   *      and/or other materials provided with the distribution.
 224:Drivers/STM32F3xx_HAL_Driver/Src/stm32f3xx_hal_i2c.c ****   *   3. Neither the name of STMicroelectronics nor the names of its contributors
 225:Drivers/STM32F3xx_HAL_Driver/Src/stm32f3xx_hal_i2c.c ****   *      may be used to endorse or promote products derived from this software
 226:Drivers/STM32F3xx_HAL_Driver/Src/stm32f3xx_hal_i2c.c ****   *      without specific prior written permission.
 227:Drivers/STM32F3xx_HAL_Driver/Src/stm32f3xx_hal_i2c.c ****   *
 228:Drivers/STM32F3xx_HAL_Driver/Src/stm32f3xx_hal_i2c.c ****   * THIS SOFTWARE IS PROVIDED BY THE COPYRIGHT HOLDERS AND CONTRIBUTORS "AS IS"
 229:Drivers/STM32F3xx_HAL_Driver/Src/stm32f3xx_hal_i2c.c ****   * AND ANY EXPRESS OR IMPLIED WARRANTIES, INCLUDING, BUT NOT LIMITED TO, THE
 230:Drivers/STM32F3xx_HAL_Driver/Src/stm32f3xx_hal_i2c.c ****   * IMPLIED WARRANTIES OF MERCHANTABILITY AND FITNESS FOR A PARTICULAR PURPOSE ARE
 231:Drivers/STM32F3xx_HAL_Driver/Src/stm32f3xx_hal_i2c.c ****   * DISCLAIMED. IN NO EVENT SHALL THE COPYRIGHT HOLDER OR CONTRIBUTORS BE LIABLE
 232:Drivers/STM32F3xx_HAL_Driver/Src/stm32f3xx_hal_i2c.c ****   * FOR ANY DIRECT, INDIRECT, INCIDENTAL, SPECIAL, EXEMPLARY, OR CONSEQUENTIAL
 233:Drivers/STM32F3xx_HAL_Driver/Src/stm32f3xx_hal_i2c.c ****   * DAMAGES (INCLUDING, BUT NOT LIMITED TO, PROCUREMENT OF SUBSTITUTE GOODS OR
 234:Drivers/STM32F3xx_HAL_Driver/Src/stm32f3xx_hal_i2c.c ****   * SERVICES; LOSS OF USE, DATA, OR PROFITS; OR BUSINESS INTERRUPTION) HOWEVER
 235:Drivers/STM32F3xx_HAL_Driver/Src/stm32f3xx_hal_i2c.c ****   * CAUSED AND ON ANY THEORY OF LIABILITY, WHETHER IN CONTRACT, STRICT LIABILITY,
 236:Drivers/STM32F3xx_HAL_Driver/Src/stm32f3xx_hal_i2c.c ****   * OR TORT (INCLUDING NEGLIGENCE OR OTHERWISE) ARISING IN ANY WAY OUT OF THE USE
 237:Drivers/STM32F3xx_HAL_Driver/Src/stm32f3xx_hal_i2c.c ****   * OF THIS SOFTWARE, EVEN IF ADVISED OF THE POSSIBILITY OF SUCH DAMAGE.
 238:Drivers/STM32F3xx_HAL_Driver/Src/stm32f3xx_hal_i2c.c ****   *
 239:Drivers/STM32F3xx_HAL_Driver/Src/stm32f3xx_hal_i2c.c ****   ******************************************************************************  
 240:Drivers/STM32F3xx_HAL_Driver/Src/stm32f3xx_hal_i2c.c ****   */
 241:Drivers/STM32F3xx_HAL_Driver/Src/stm32f3xx_hal_i2c.c **** 
 242:Drivers/STM32F3xx_HAL_Driver/Src/stm32f3xx_hal_i2c.c **** /* Includes ------------------------------------------------------------------*/
 243:Drivers/STM32F3xx_HAL_Driver/Src/stm32f3xx_hal_i2c.c **** #include "stm32f3xx_hal.h"
 244:Drivers/STM32F3xx_HAL_Driver/Src/stm32f3xx_hal_i2c.c **** 
 245:Drivers/STM32F3xx_HAL_Driver/Src/stm32f3xx_hal_i2c.c **** /** @addtogroup STM32F3xx_HAL_Driver
 246:Drivers/STM32F3xx_HAL_Driver/Src/stm32f3xx_hal_i2c.c ****   * @{
 247:Drivers/STM32F3xx_HAL_Driver/Src/stm32f3xx_hal_i2c.c ****   */
 248:Drivers/STM32F3xx_HAL_Driver/Src/stm32f3xx_hal_i2c.c **** 
 249:Drivers/STM32F3xx_HAL_Driver/Src/stm32f3xx_hal_i2c.c **** /** @defgroup I2C I2C
 250:Drivers/STM32F3xx_HAL_Driver/Src/stm32f3xx_hal_i2c.c ****   * @brief I2C HAL module driver
 251:Drivers/STM32F3xx_HAL_Driver/Src/stm32f3xx_hal_i2c.c ****   * @{
 252:Drivers/STM32F3xx_HAL_Driver/Src/stm32f3xx_hal_i2c.c ****   */
 253:Drivers/STM32F3xx_HAL_Driver/Src/stm32f3xx_hal_i2c.c **** 
 254:Drivers/STM32F3xx_HAL_Driver/Src/stm32f3xx_hal_i2c.c **** #ifdef HAL_I2C_MODULE_ENABLED
 255:Drivers/STM32F3xx_HAL_Driver/Src/stm32f3xx_hal_i2c.c **** 
 256:Drivers/STM32F3xx_HAL_Driver/Src/stm32f3xx_hal_i2c.c **** /* Private typedef -----------------------------------------------------------*/
 257:Drivers/STM32F3xx_HAL_Driver/Src/stm32f3xx_hal_i2c.c **** /* Private define ------------------------------------------------------------*/
 258:Drivers/STM32F3xx_HAL_Driver/Src/stm32f3xx_hal_i2c.c **** 
 259:Drivers/STM32F3xx_HAL_Driver/Src/stm32f3xx_hal_i2c.c **** /** @defgroup I2C_Private_Define I2C Private Define
ARM GAS  /tmp/cccd70Af.s 			page 6


 260:Drivers/STM32F3xx_HAL_Driver/Src/stm32f3xx_hal_i2c.c ****   * @{
 261:Drivers/STM32F3xx_HAL_Driver/Src/stm32f3xx_hal_i2c.c ****   */
 262:Drivers/STM32F3xx_HAL_Driver/Src/stm32f3xx_hal_i2c.c **** #define TIMING_CLEAR_MASK   (0xF0FFFFFFU)  /*!< I2C TIMING clear register Mask */
 263:Drivers/STM32F3xx_HAL_Driver/Src/stm32f3xx_hal_i2c.c **** #define I2C_TIMEOUT_ADDR    (10000U)       /*!< 10 s  */
 264:Drivers/STM32F3xx_HAL_Driver/Src/stm32f3xx_hal_i2c.c **** #define I2C_TIMEOUT_BUSY    (25U)          /*!< 25 ms */
 265:Drivers/STM32F3xx_HAL_Driver/Src/stm32f3xx_hal_i2c.c **** #define I2C_TIMEOUT_DIR     (25U)          /*!< 25 ms */
 266:Drivers/STM32F3xx_HAL_Driver/Src/stm32f3xx_hal_i2c.c **** #define I2C_TIMEOUT_RXNE    (25U)          /*!< 25 ms */
 267:Drivers/STM32F3xx_HAL_Driver/Src/stm32f3xx_hal_i2c.c **** #define I2C_TIMEOUT_STOPF   (25U)          /*!< 25 ms */
 268:Drivers/STM32F3xx_HAL_Driver/Src/stm32f3xx_hal_i2c.c **** #define I2C_TIMEOUT_TC      (25U)          /*!< 25 ms */
 269:Drivers/STM32F3xx_HAL_Driver/Src/stm32f3xx_hal_i2c.c **** #define I2C_TIMEOUT_TCR     (25U)          /*!< 25 ms */
 270:Drivers/STM32F3xx_HAL_Driver/Src/stm32f3xx_hal_i2c.c **** #define I2C_TIMEOUT_TXIS    (25U)          /*!< 25 ms */
 271:Drivers/STM32F3xx_HAL_Driver/Src/stm32f3xx_hal_i2c.c **** #define I2C_TIMEOUT_FLAG    (25U)          /*!< 25 ms */
 272:Drivers/STM32F3xx_HAL_Driver/Src/stm32f3xx_hal_i2c.c **** 
 273:Drivers/STM32F3xx_HAL_Driver/Src/stm32f3xx_hal_i2c.c **** #define MAX_NBYTE_SIZE      255U
 274:Drivers/STM32F3xx_HAL_Driver/Src/stm32f3xx_hal_i2c.c **** #define SlaveAddr_SHIFT     7U
 275:Drivers/STM32F3xx_HAL_Driver/Src/stm32f3xx_hal_i2c.c **** #define SlaveAddr_MSK       0x06U
 276:Drivers/STM32F3xx_HAL_Driver/Src/stm32f3xx_hal_i2c.c **** 
 277:Drivers/STM32F3xx_HAL_Driver/Src/stm32f3xx_hal_i2c.c **** /* Private define for @ref PreviousState usage */
 278:Drivers/STM32F3xx_HAL_Driver/Src/stm32f3xx_hal_i2c.c **** #define I2C_STATE_MSK             ((uint32_t)((HAL_I2C_STATE_BUSY_TX | HAL_I2C_STATE_BUSY_RX) & (ui
 279:Drivers/STM32F3xx_HAL_Driver/Src/stm32f3xx_hal_i2c.c **** #define I2C_STATE_NONE            ((uint32_t)(HAL_I2C_MODE_NONE))                                  
 280:Drivers/STM32F3xx_HAL_Driver/Src/stm32f3xx_hal_i2c.c **** #define I2C_STATE_MASTER_BUSY_TX  ((uint32_t)((HAL_I2C_STATE_BUSY_TX & I2C_STATE_MSK) | HAL_I2C_MOD
 281:Drivers/STM32F3xx_HAL_Driver/Src/stm32f3xx_hal_i2c.c **** #define I2C_STATE_MASTER_BUSY_RX  ((uint32_t)((HAL_I2C_STATE_BUSY_RX & I2C_STATE_MSK) | HAL_I2C_MOD
 282:Drivers/STM32F3xx_HAL_Driver/Src/stm32f3xx_hal_i2c.c **** #define I2C_STATE_SLAVE_BUSY_TX   ((uint32_t)((HAL_I2C_STATE_BUSY_TX & I2C_STATE_MSK) | HAL_I2C_MOD
 283:Drivers/STM32F3xx_HAL_Driver/Src/stm32f3xx_hal_i2c.c **** #define I2C_STATE_SLAVE_BUSY_RX   ((uint32_t)((HAL_I2C_STATE_BUSY_RX & I2C_STATE_MSK) | HAL_I2C_MOD
 284:Drivers/STM32F3xx_HAL_Driver/Src/stm32f3xx_hal_i2c.c **** #define I2C_STATE_MEM_BUSY_TX     ((uint32_t)((HAL_I2C_STATE_BUSY_TX & I2C_STATE_MSK) | HAL_I2C_MOD
 285:Drivers/STM32F3xx_HAL_Driver/Src/stm32f3xx_hal_i2c.c **** #define I2C_STATE_MEM_BUSY_RX     ((uint32_t)((HAL_I2C_STATE_BUSY_RX & I2C_STATE_MSK) | HAL_I2C_MOD
 286:Drivers/STM32F3xx_HAL_Driver/Src/stm32f3xx_hal_i2c.c **** 
 287:Drivers/STM32F3xx_HAL_Driver/Src/stm32f3xx_hal_i2c.c **** 
 288:Drivers/STM32F3xx_HAL_Driver/Src/stm32f3xx_hal_i2c.c **** /* Private define to centralize the enable/disable of Interrupts */
 289:Drivers/STM32F3xx_HAL_Driver/Src/stm32f3xx_hal_i2c.c **** #define I2C_XFER_TX_IT          (0x00000001U)
 290:Drivers/STM32F3xx_HAL_Driver/Src/stm32f3xx_hal_i2c.c **** #define I2C_XFER_RX_IT          (0x00000002U)
 291:Drivers/STM32F3xx_HAL_Driver/Src/stm32f3xx_hal_i2c.c **** #define I2C_XFER_LISTEN_IT      (0x00000004U)
 292:Drivers/STM32F3xx_HAL_Driver/Src/stm32f3xx_hal_i2c.c **** 
 293:Drivers/STM32F3xx_HAL_Driver/Src/stm32f3xx_hal_i2c.c **** #define I2C_XFER_ERROR_IT       (0x00000011U)
 294:Drivers/STM32F3xx_HAL_Driver/Src/stm32f3xx_hal_i2c.c **** #define I2C_XFER_CPLT_IT        (0x00000012U)
 295:Drivers/STM32F3xx_HAL_Driver/Src/stm32f3xx_hal_i2c.c **** #define I2C_XFER_RELOAD_IT      (0x00000012U)
 296:Drivers/STM32F3xx_HAL_Driver/Src/stm32f3xx_hal_i2c.c **** /**
 297:Drivers/STM32F3xx_HAL_Driver/Src/stm32f3xx_hal_i2c.c ****   * @}
 298:Drivers/STM32F3xx_HAL_Driver/Src/stm32f3xx_hal_i2c.c ****   */ 
 299:Drivers/STM32F3xx_HAL_Driver/Src/stm32f3xx_hal_i2c.c **** 
 300:Drivers/STM32F3xx_HAL_Driver/Src/stm32f3xx_hal_i2c.c **** /* Private macro -------------------------------------------------------------*/
 301:Drivers/STM32F3xx_HAL_Driver/Src/stm32f3xx_hal_i2c.c **** #define I2C_GET_DMA_REMAIN_DATA(__HANDLE__) ((((__HANDLE__)->State) == HAL_I2C_STATE_BUSY_TX)   ? \
 302:Drivers/STM32F3xx_HAL_Driver/Src/stm32f3xx_hal_i2c.c ****                                             ((uint32_t)((__HANDLE__)->hdmatx->Instance->CNDTR)) : \
 303:Drivers/STM32F3xx_HAL_Driver/Src/stm32f3xx_hal_i2c.c ****                                             ((uint32_t)((__HANDLE__)->hdmarx->Instance->CNDTR)))
 304:Drivers/STM32F3xx_HAL_Driver/Src/stm32f3xx_hal_i2c.c **** 
 305:Drivers/STM32F3xx_HAL_Driver/Src/stm32f3xx_hal_i2c.c **** /* Private variables ---------------------------------------------------------*/
 306:Drivers/STM32F3xx_HAL_Driver/Src/stm32f3xx_hal_i2c.c **** /* Private function prototypes -----------------------------------------------*/
 307:Drivers/STM32F3xx_HAL_Driver/Src/stm32f3xx_hal_i2c.c **** 
 308:Drivers/STM32F3xx_HAL_Driver/Src/stm32f3xx_hal_i2c.c **** /** @defgroup I2C_Private_Functions I2C Private Functions
 309:Drivers/STM32F3xx_HAL_Driver/Src/stm32f3xx_hal_i2c.c ****   * @{
 310:Drivers/STM32F3xx_HAL_Driver/Src/stm32f3xx_hal_i2c.c ****   */
 311:Drivers/STM32F3xx_HAL_Driver/Src/stm32f3xx_hal_i2c.c **** /* Private functions to handle DMA transfer */
 312:Drivers/STM32F3xx_HAL_Driver/Src/stm32f3xx_hal_i2c.c **** static void I2C_DMAMasterTransmitCplt(DMA_HandleTypeDef *hdma);
 313:Drivers/STM32F3xx_HAL_Driver/Src/stm32f3xx_hal_i2c.c **** static void I2C_DMAMasterReceiveCplt(DMA_HandleTypeDef *hdma);
 314:Drivers/STM32F3xx_HAL_Driver/Src/stm32f3xx_hal_i2c.c **** static void I2C_DMASlaveTransmitCplt(DMA_HandleTypeDef *hdma);
 315:Drivers/STM32F3xx_HAL_Driver/Src/stm32f3xx_hal_i2c.c **** static void I2C_DMASlaveReceiveCplt(DMA_HandleTypeDef *hdma);
 316:Drivers/STM32F3xx_HAL_Driver/Src/stm32f3xx_hal_i2c.c **** static void I2C_DMAError(DMA_HandleTypeDef *hdma);
ARM GAS  /tmp/cccd70Af.s 			page 7


 317:Drivers/STM32F3xx_HAL_Driver/Src/stm32f3xx_hal_i2c.c **** static void I2C_DMAAbort(DMA_HandleTypeDef *hdma);
 318:Drivers/STM32F3xx_HAL_Driver/Src/stm32f3xx_hal_i2c.c **** 
 319:Drivers/STM32F3xx_HAL_Driver/Src/stm32f3xx_hal_i2c.c **** /* Private functions to handle IT transfer */
 320:Drivers/STM32F3xx_HAL_Driver/Src/stm32f3xx_hal_i2c.c **** static void I2C_ITAddrCplt(I2C_HandleTypeDef *hi2c, uint32_t ITFlags);
 321:Drivers/STM32F3xx_HAL_Driver/Src/stm32f3xx_hal_i2c.c **** static void I2C_ITMasterSequentialCplt(I2C_HandleTypeDef *hi2c);
 322:Drivers/STM32F3xx_HAL_Driver/Src/stm32f3xx_hal_i2c.c **** static void I2C_ITSlaveSequentialCplt(I2C_HandleTypeDef *hi2c);
 323:Drivers/STM32F3xx_HAL_Driver/Src/stm32f3xx_hal_i2c.c **** static void I2C_ITMasterCplt(I2C_HandleTypeDef *hi2c, uint32_t ITFlags);
 324:Drivers/STM32F3xx_HAL_Driver/Src/stm32f3xx_hal_i2c.c **** static void I2C_ITSlaveCplt(I2C_HandleTypeDef *hi2c, uint32_t ITFlags);
 325:Drivers/STM32F3xx_HAL_Driver/Src/stm32f3xx_hal_i2c.c **** static void I2C_ITListenCplt(I2C_HandleTypeDef *hi2c, uint32_t ITFlags);
 326:Drivers/STM32F3xx_HAL_Driver/Src/stm32f3xx_hal_i2c.c **** static void I2C_ITError(I2C_HandleTypeDef *hi2c, uint32_t ErrorCode);
 327:Drivers/STM32F3xx_HAL_Driver/Src/stm32f3xx_hal_i2c.c **** 
 328:Drivers/STM32F3xx_HAL_Driver/Src/stm32f3xx_hal_i2c.c **** /* Private functions to handle IT transfer */
 329:Drivers/STM32F3xx_HAL_Driver/Src/stm32f3xx_hal_i2c.c **** static HAL_StatusTypeDef I2C_RequestMemoryWrite(I2C_HandleTypeDef *hi2c, uint16_t DevAddress, uint1
 330:Drivers/STM32F3xx_HAL_Driver/Src/stm32f3xx_hal_i2c.c **** static HAL_StatusTypeDef I2C_RequestMemoryRead(I2C_HandleTypeDef *hi2c, uint16_t DevAddress, uint16
 331:Drivers/STM32F3xx_HAL_Driver/Src/stm32f3xx_hal_i2c.c **** 
 332:Drivers/STM32F3xx_HAL_Driver/Src/stm32f3xx_hal_i2c.c **** /* Private functions for I2C transfer IRQ handler */
 333:Drivers/STM32F3xx_HAL_Driver/Src/stm32f3xx_hal_i2c.c **** static HAL_StatusTypeDef I2C_Master_ISR_IT(struct __I2C_HandleTypeDef *hi2c, uint32_t ITFlags, uint
 334:Drivers/STM32F3xx_HAL_Driver/Src/stm32f3xx_hal_i2c.c **** static HAL_StatusTypeDef I2C_Slave_ISR_IT(struct __I2C_HandleTypeDef *hi2c, uint32_t ITFlags, uint3
 335:Drivers/STM32F3xx_HAL_Driver/Src/stm32f3xx_hal_i2c.c **** static HAL_StatusTypeDef I2C_Master_ISR_DMA(struct __I2C_HandleTypeDef *hi2c, uint32_t ITFlags, uin
 336:Drivers/STM32F3xx_HAL_Driver/Src/stm32f3xx_hal_i2c.c **** static HAL_StatusTypeDef I2C_Slave_ISR_DMA(struct __I2C_HandleTypeDef *hi2c, uint32_t ITFlags, uint
 337:Drivers/STM32F3xx_HAL_Driver/Src/stm32f3xx_hal_i2c.c **** 
 338:Drivers/STM32F3xx_HAL_Driver/Src/stm32f3xx_hal_i2c.c **** /* Private functions to handle flags during polling transfer */
 339:Drivers/STM32F3xx_HAL_Driver/Src/stm32f3xx_hal_i2c.c **** static HAL_StatusTypeDef I2C_WaitOnFlagUntilTimeout(I2C_HandleTypeDef *hi2c, uint32_t Flag, FlagSta
 340:Drivers/STM32F3xx_HAL_Driver/Src/stm32f3xx_hal_i2c.c **** static HAL_StatusTypeDef I2C_WaitOnTXISFlagUntilTimeout(I2C_HandleTypeDef *hi2c, uint32_t Timeout, 
 341:Drivers/STM32F3xx_HAL_Driver/Src/stm32f3xx_hal_i2c.c **** static HAL_StatusTypeDef I2C_WaitOnRXNEFlagUntilTimeout(I2C_HandleTypeDef *hi2c, uint32_t Timeout, 
 342:Drivers/STM32F3xx_HAL_Driver/Src/stm32f3xx_hal_i2c.c **** static HAL_StatusTypeDef I2C_WaitOnSTOPFlagUntilTimeout(I2C_HandleTypeDef *hi2c, uint32_t Timeout, 
 343:Drivers/STM32F3xx_HAL_Driver/Src/stm32f3xx_hal_i2c.c **** static HAL_StatusTypeDef I2C_IsAcknowledgeFailed(I2C_HandleTypeDef *hi2c, uint32_t Timeout, uint32_
 344:Drivers/STM32F3xx_HAL_Driver/Src/stm32f3xx_hal_i2c.c **** 
 345:Drivers/STM32F3xx_HAL_Driver/Src/stm32f3xx_hal_i2c.c **** /* Private functions to centralize the enable/disable of Interrupts */
 346:Drivers/STM32F3xx_HAL_Driver/Src/stm32f3xx_hal_i2c.c **** static HAL_StatusTypeDef I2C_Enable_IRQ(I2C_HandleTypeDef *hi2c, uint16_t InterruptRequest);
 347:Drivers/STM32F3xx_HAL_Driver/Src/stm32f3xx_hal_i2c.c **** static HAL_StatusTypeDef I2C_Disable_IRQ(I2C_HandleTypeDef *hi2c, uint16_t InterruptRequest);
 348:Drivers/STM32F3xx_HAL_Driver/Src/stm32f3xx_hal_i2c.c **** 
 349:Drivers/STM32F3xx_HAL_Driver/Src/stm32f3xx_hal_i2c.c **** /* Private functions to flush TXDR register */
 350:Drivers/STM32F3xx_HAL_Driver/Src/stm32f3xx_hal_i2c.c **** static void I2C_Flush_TXDR(I2C_HandleTypeDef *hi2c);
 351:Drivers/STM32F3xx_HAL_Driver/Src/stm32f3xx_hal_i2c.c **** 
 352:Drivers/STM32F3xx_HAL_Driver/Src/stm32f3xx_hal_i2c.c **** /* Private functions to handle  start, restart or stop a transfer */
 353:Drivers/STM32F3xx_HAL_Driver/Src/stm32f3xx_hal_i2c.c **** static void I2C_TransferConfig(I2C_HandleTypeDef *hi2c,  uint16_t DevAddress, uint8_t Size, uint32_
 354:Drivers/STM32F3xx_HAL_Driver/Src/stm32f3xx_hal_i2c.c **** /**
 355:Drivers/STM32F3xx_HAL_Driver/Src/stm32f3xx_hal_i2c.c ****   * @}
 356:Drivers/STM32F3xx_HAL_Driver/Src/stm32f3xx_hal_i2c.c ****   */ 
 357:Drivers/STM32F3xx_HAL_Driver/Src/stm32f3xx_hal_i2c.c **** 
 358:Drivers/STM32F3xx_HAL_Driver/Src/stm32f3xx_hal_i2c.c **** /* Exported functions --------------------------------------------------------*/
 359:Drivers/STM32F3xx_HAL_Driver/Src/stm32f3xx_hal_i2c.c **** 
 360:Drivers/STM32F3xx_HAL_Driver/Src/stm32f3xx_hal_i2c.c **** /** @defgroup I2C_Exported_Functions I2C Exported Functions
 361:Drivers/STM32F3xx_HAL_Driver/Src/stm32f3xx_hal_i2c.c ****   * @{
 362:Drivers/STM32F3xx_HAL_Driver/Src/stm32f3xx_hal_i2c.c ****   */
 363:Drivers/STM32F3xx_HAL_Driver/Src/stm32f3xx_hal_i2c.c **** 
 364:Drivers/STM32F3xx_HAL_Driver/Src/stm32f3xx_hal_i2c.c **** /** @defgroup I2C_Exported_Functions_Group1 Initialization and de-initialization functions
 365:Drivers/STM32F3xx_HAL_Driver/Src/stm32f3xx_hal_i2c.c ****  *  @brief    Initialization and Configuration functions 
 366:Drivers/STM32F3xx_HAL_Driver/Src/stm32f3xx_hal_i2c.c ****  *
 367:Drivers/STM32F3xx_HAL_Driver/Src/stm32f3xx_hal_i2c.c **** @verbatim
 368:Drivers/STM32F3xx_HAL_Driver/Src/stm32f3xx_hal_i2c.c ****  ===============================================================================
 369:Drivers/STM32F3xx_HAL_Driver/Src/stm32f3xx_hal_i2c.c ****               ##### Initialization and de-initialization functions #####
 370:Drivers/STM32F3xx_HAL_Driver/Src/stm32f3xx_hal_i2c.c ****  ===============================================================================
 371:Drivers/STM32F3xx_HAL_Driver/Src/stm32f3xx_hal_i2c.c ****     [..]  This subsection provides a set of functions allowing to initialize and 
 372:Drivers/STM32F3xx_HAL_Driver/Src/stm32f3xx_hal_i2c.c ****           deinitialize the I2Cx peripheral:
 373:Drivers/STM32F3xx_HAL_Driver/Src/stm32f3xx_hal_i2c.c **** 
ARM GAS  /tmp/cccd70Af.s 			page 8


 374:Drivers/STM32F3xx_HAL_Driver/Src/stm32f3xx_hal_i2c.c ****       (+) User must Implement HAL_I2C_MspInit() function in which he configures 
 375:Drivers/STM32F3xx_HAL_Driver/Src/stm32f3xx_hal_i2c.c ****           all related peripherals resources (CLOCK, GPIO, DMA, IT and NVIC ).
 376:Drivers/STM32F3xx_HAL_Driver/Src/stm32f3xx_hal_i2c.c **** 
 377:Drivers/STM32F3xx_HAL_Driver/Src/stm32f3xx_hal_i2c.c ****       (+) Call the function HAL_I2C_Init() to configure the selected device with 
 378:Drivers/STM32F3xx_HAL_Driver/Src/stm32f3xx_hal_i2c.c ****           the selected configuration:
 379:Drivers/STM32F3xx_HAL_Driver/Src/stm32f3xx_hal_i2c.c ****         (++) Clock Timing
 380:Drivers/STM32F3xx_HAL_Driver/Src/stm32f3xx_hal_i2c.c ****         (++) Own Address 1
 381:Drivers/STM32F3xx_HAL_Driver/Src/stm32f3xx_hal_i2c.c ****         (++) Addressing mode (Master, Slave)
 382:Drivers/STM32F3xx_HAL_Driver/Src/stm32f3xx_hal_i2c.c ****         (++) Dual Addressing mode
 383:Drivers/STM32F3xx_HAL_Driver/Src/stm32f3xx_hal_i2c.c ****         (++) Own Address 2
 384:Drivers/STM32F3xx_HAL_Driver/Src/stm32f3xx_hal_i2c.c ****         (++) Own Address 2 Mask
 385:Drivers/STM32F3xx_HAL_Driver/Src/stm32f3xx_hal_i2c.c ****         (++) General call mode
 386:Drivers/STM32F3xx_HAL_Driver/Src/stm32f3xx_hal_i2c.c ****         (++) Nostretch mode
 387:Drivers/STM32F3xx_HAL_Driver/Src/stm32f3xx_hal_i2c.c **** 
 388:Drivers/STM32F3xx_HAL_Driver/Src/stm32f3xx_hal_i2c.c ****       (+) Call the function HAL_I2C_DeInit() to restore the default configuration 
 389:Drivers/STM32F3xx_HAL_Driver/Src/stm32f3xx_hal_i2c.c ****           of the selected I2Cx peripheral.       
 390:Drivers/STM32F3xx_HAL_Driver/Src/stm32f3xx_hal_i2c.c **** 
 391:Drivers/STM32F3xx_HAL_Driver/Src/stm32f3xx_hal_i2c.c **** @endverbatim
 392:Drivers/STM32F3xx_HAL_Driver/Src/stm32f3xx_hal_i2c.c ****   * @{
 393:Drivers/STM32F3xx_HAL_Driver/Src/stm32f3xx_hal_i2c.c ****   */
 394:Drivers/STM32F3xx_HAL_Driver/Src/stm32f3xx_hal_i2c.c **** 
 395:Drivers/STM32F3xx_HAL_Driver/Src/stm32f3xx_hal_i2c.c **** /**
 396:Drivers/STM32F3xx_HAL_Driver/Src/stm32f3xx_hal_i2c.c ****   * @brief  Initializes the I2C according to the specified parameters 
 397:Drivers/STM32F3xx_HAL_Driver/Src/stm32f3xx_hal_i2c.c ****   *         in the I2C_InitTypeDef and initialize the associated handle.
 398:Drivers/STM32F3xx_HAL_Driver/Src/stm32f3xx_hal_i2c.c ****   * @param  hi2c Pointer to a I2C_HandleTypeDef structure that contains
 399:Drivers/STM32F3xx_HAL_Driver/Src/stm32f3xx_hal_i2c.c ****   *                the configuration information for the specified I2C.
 400:Drivers/STM32F3xx_HAL_Driver/Src/stm32f3xx_hal_i2c.c ****   * @retval HAL status
 401:Drivers/STM32F3xx_HAL_Driver/Src/stm32f3xx_hal_i2c.c ****   */
 402:Drivers/STM32F3xx_HAL_Driver/Src/stm32f3xx_hal_i2c.c **** HAL_StatusTypeDef HAL_I2C_Init(I2C_HandleTypeDef *hi2c)
 403:Drivers/STM32F3xx_HAL_Driver/Src/stm32f3xx_hal_i2c.c **** {
  28              		.loc 1 403 0
  29              		.cfi_startproc
  30              		@ args = 0, pretend = 0, frame = 8
  31              		@ frame_needed = 1, uses_anonymous_args = 0
  32 0000 80B5     		push	{r7, lr}
  33              	.LCFI0:
  34              		.cfi_def_cfa_offset 8
  35              		.cfi_offset 7, -8
  36              		.cfi_offset 14, -4
  37 0002 82B0     		sub	sp, sp, #8
  38              	.LCFI1:
  39              		.cfi_def_cfa_offset 16
  40 0004 00AF     		add	r7, sp, #0
  41              	.LCFI2:
  42              		.cfi_def_cfa_register 7
  43 0006 7860     		str	r0, [r7, #4]
 404:Drivers/STM32F3xx_HAL_Driver/Src/stm32f3xx_hal_i2c.c ****   /* Check the I2C handle allocation */
 405:Drivers/STM32F3xx_HAL_Driver/Src/stm32f3xx_hal_i2c.c ****   if(hi2c == NULL)
  44              		.loc 1 405 0
  45 0008 7B68     		ldr	r3, [r7, #4]
  46 000a 002B     		cmp	r3, #0
  47 000c 01D1     		bne	.L2
 406:Drivers/STM32F3xx_HAL_Driver/Src/stm32f3xx_hal_i2c.c ****   {
 407:Drivers/STM32F3xx_HAL_Driver/Src/stm32f3xx_hal_i2c.c ****     return HAL_ERROR;
  48              		.loc 1 407 0
  49 000e 0123     		movs	r3, #1
  50 0010 7CE0     		b	.L3
ARM GAS  /tmp/cccd70Af.s 			page 9


  51              	.L2:
 408:Drivers/STM32F3xx_HAL_Driver/Src/stm32f3xx_hal_i2c.c ****   }
 409:Drivers/STM32F3xx_HAL_Driver/Src/stm32f3xx_hal_i2c.c **** 
 410:Drivers/STM32F3xx_HAL_Driver/Src/stm32f3xx_hal_i2c.c ****   /* Check the parameters */
 411:Drivers/STM32F3xx_HAL_Driver/Src/stm32f3xx_hal_i2c.c ****   assert_param(IS_I2C_ALL_INSTANCE(hi2c->Instance));
 412:Drivers/STM32F3xx_HAL_Driver/Src/stm32f3xx_hal_i2c.c ****   assert_param(IS_I2C_OWN_ADDRESS1(hi2c->Init.OwnAddress1));
 413:Drivers/STM32F3xx_HAL_Driver/Src/stm32f3xx_hal_i2c.c ****   assert_param(IS_I2C_ADDRESSING_MODE(hi2c->Init.AddressingMode));
 414:Drivers/STM32F3xx_HAL_Driver/Src/stm32f3xx_hal_i2c.c ****   assert_param(IS_I2C_DUAL_ADDRESS(hi2c->Init.DualAddressMode));
 415:Drivers/STM32F3xx_HAL_Driver/Src/stm32f3xx_hal_i2c.c ****   assert_param(IS_I2C_OWN_ADDRESS2(hi2c->Init.OwnAddress2));
 416:Drivers/STM32F3xx_HAL_Driver/Src/stm32f3xx_hal_i2c.c ****   assert_param(IS_I2C_OWN_ADDRESS2_MASK(hi2c->Init.OwnAddress2Masks));
 417:Drivers/STM32F3xx_HAL_Driver/Src/stm32f3xx_hal_i2c.c ****   assert_param(IS_I2C_GENERAL_CALL(hi2c->Init.GeneralCallMode));
 418:Drivers/STM32F3xx_HAL_Driver/Src/stm32f3xx_hal_i2c.c ****   assert_param(IS_I2C_NO_STRETCH(hi2c->Init.NoStretchMode));
 419:Drivers/STM32F3xx_HAL_Driver/Src/stm32f3xx_hal_i2c.c **** 
 420:Drivers/STM32F3xx_HAL_Driver/Src/stm32f3xx_hal_i2c.c ****   if(hi2c->State == HAL_I2C_STATE_RESET)
  52              		.loc 1 420 0
  53 0012 7B68     		ldr	r3, [r7, #4]
  54 0014 93F84130 		ldrb	r3, [r3, #65]
  55 0018 DBB2     		uxtb	r3, r3
  56 001a 002B     		cmp	r3, #0
  57 001c 06D1     		bne	.L4
 421:Drivers/STM32F3xx_HAL_Driver/Src/stm32f3xx_hal_i2c.c ****   {
 422:Drivers/STM32F3xx_HAL_Driver/Src/stm32f3xx_hal_i2c.c ****     /* Allocate lock resource and initialize it */
 423:Drivers/STM32F3xx_HAL_Driver/Src/stm32f3xx_hal_i2c.c ****     hi2c->Lock = HAL_UNLOCKED;
  58              		.loc 1 423 0
  59 001e 7B68     		ldr	r3, [r7, #4]
  60 0020 0022     		movs	r2, #0
  61 0022 83F84020 		strb	r2, [r3, #64]
 424:Drivers/STM32F3xx_HAL_Driver/Src/stm32f3xx_hal_i2c.c ****     
 425:Drivers/STM32F3xx_HAL_Driver/Src/stm32f3xx_hal_i2c.c ****     /* Init the low level hardware : GPIO, CLOCK, CORTEX...etc */
 426:Drivers/STM32F3xx_HAL_Driver/Src/stm32f3xx_hal_i2c.c ****     HAL_I2C_MspInit(hi2c);
  62              		.loc 1 426 0
  63 0026 7868     		ldr	r0, [r7, #4]
  64 0028 FFF7FEFF 		bl	HAL_I2C_MspInit
  65              	.L4:
 427:Drivers/STM32F3xx_HAL_Driver/Src/stm32f3xx_hal_i2c.c ****   }
 428:Drivers/STM32F3xx_HAL_Driver/Src/stm32f3xx_hal_i2c.c **** 
 429:Drivers/STM32F3xx_HAL_Driver/Src/stm32f3xx_hal_i2c.c ****   hi2c->State = HAL_I2C_STATE_BUSY;
  66              		.loc 1 429 0
  67 002c 7B68     		ldr	r3, [r7, #4]
  68 002e 2422     		movs	r2, #36
  69 0030 83F84120 		strb	r2, [r3, #65]
 430:Drivers/STM32F3xx_HAL_Driver/Src/stm32f3xx_hal_i2c.c **** 
 431:Drivers/STM32F3xx_HAL_Driver/Src/stm32f3xx_hal_i2c.c ****   /* Disable the selected I2C peripheral */
 432:Drivers/STM32F3xx_HAL_Driver/Src/stm32f3xx_hal_i2c.c ****   __HAL_I2C_DISABLE(hi2c);
  70              		.loc 1 432 0
  71 0034 7B68     		ldr	r3, [r7, #4]
  72 0036 1B68     		ldr	r3, [r3]
  73 0038 7A68     		ldr	r2, [r7, #4]
  74 003a 1268     		ldr	r2, [r2]
  75 003c 1268     		ldr	r2, [r2]
  76 003e 22F00102 		bic	r2, r2, #1
  77 0042 1A60     		str	r2, [r3]
 433:Drivers/STM32F3xx_HAL_Driver/Src/stm32f3xx_hal_i2c.c **** 
 434:Drivers/STM32F3xx_HAL_Driver/Src/stm32f3xx_hal_i2c.c ****   /*---------------------------- I2Cx TIMINGR Configuration ------------------*/
 435:Drivers/STM32F3xx_HAL_Driver/Src/stm32f3xx_hal_i2c.c ****   /* Configure I2Cx: Frequency range */
 436:Drivers/STM32F3xx_HAL_Driver/Src/stm32f3xx_hal_i2c.c ****   hi2c->Instance->TIMINGR = hi2c->Init.Timing & TIMING_CLEAR_MASK;
  78              		.loc 1 436 0
ARM GAS  /tmp/cccd70Af.s 			page 10


  79 0044 7B68     		ldr	r3, [r7, #4]
  80 0046 1B68     		ldr	r3, [r3]
  81 0048 7A68     		ldr	r2, [r7, #4]
  82 004a 5268     		ldr	r2, [r2, #4]
  83 004c 22F07062 		bic	r2, r2, #251658240
  84 0050 1A61     		str	r2, [r3, #16]
 437:Drivers/STM32F3xx_HAL_Driver/Src/stm32f3xx_hal_i2c.c **** 
 438:Drivers/STM32F3xx_HAL_Driver/Src/stm32f3xx_hal_i2c.c ****   /*---------------------------- I2Cx OAR1 Configuration ---------------------*/
 439:Drivers/STM32F3xx_HAL_Driver/Src/stm32f3xx_hal_i2c.c ****   /* Configure I2Cx: Own Address1 and ack own address1 mode */
 440:Drivers/STM32F3xx_HAL_Driver/Src/stm32f3xx_hal_i2c.c ****   hi2c->Instance->OAR1 &= ~I2C_OAR1_OA1EN;
  85              		.loc 1 440 0
  86 0052 7B68     		ldr	r3, [r7, #4]
  87 0054 1B68     		ldr	r3, [r3]
  88 0056 7A68     		ldr	r2, [r7, #4]
  89 0058 1268     		ldr	r2, [r2]
  90 005a 9268     		ldr	r2, [r2, #8]
  91 005c 22F40042 		bic	r2, r2, #32768
  92 0060 9A60     		str	r2, [r3, #8]
 441:Drivers/STM32F3xx_HAL_Driver/Src/stm32f3xx_hal_i2c.c ****   if(hi2c->Init.OwnAddress1 != 0U)
  93              		.loc 1 441 0
  94 0062 7B68     		ldr	r3, [r7, #4]
  95 0064 9B68     		ldr	r3, [r3, #8]
  96 0066 002B     		cmp	r3, #0
  97 0068 12D0     		beq	.L5
 442:Drivers/STM32F3xx_HAL_Driver/Src/stm32f3xx_hal_i2c.c ****   {
 443:Drivers/STM32F3xx_HAL_Driver/Src/stm32f3xx_hal_i2c.c ****     if(hi2c->Init.AddressingMode == I2C_ADDRESSINGMODE_7BIT)
  98              		.loc 1 443 0
  99 006a 7B68     		ldr	r3, [r7, #4]
 100 006c DB68     		ldr	r3, [r3, #12]
 101 006e 012B     		cmp	r3, #1
 102 0070 07D1     		bne	.L6
 444:Drivers/STM32F3xx_HAL_Driver/Src/stm32f3xx_hal_i2c.c ****     {
 445:Drivers/STM32F3xx_HAL_Driver/Src/stm32f3xx_hal_i2c.c ****       hi2c->Instance->OAR1 = (I2C_OAR1_OA1EN | hi2c->Init.OwnAddress1);
 103              		.loc 1 445 0
 104 0072 7B68     		ldr	r3, [r7, #4]
 105 0074 1B68     		ldr	r3, [r3]
 106 0076 7A68     		ldr	r2, [r7, #4]
 107 0078 9268     		ldr	r2, [r2, #8]
 108 007a 42F40042 		orr	r2, r2, #32768
 109 007e 9A60     		str	r2, [r3, #8]
 110 0080 06E0     		b	.L5
 111              	.L6:
 446:Drivers/STM32F3xx_HAL_Driver/Src/stm32f3xx_hal_i2c.c ****     }
 447:Drivers/STM32F3xx_HAL_Driver/Src/stm32f3xx_hal_i2c.c ****     else /* I2C_ADDRESSINGMODE_10BIT */
 448:Drivers/STM32F3xx_HAL_Driver/Src/stm32f3xx_hal_i2c.c ****     {
 449:Drivers/STM32F3xx_HAL_Driver/Src/stm32f3xx_hal_i2c.c ****       hi2c->Instance->OAR1 = (I2C_OAR1_OA1EN | I2C_OAR1_OA1MODE | hi2c->Init.OwnAddress1);
 112              		.loc 1 449 0
 113 0082 7B68     		ldr	r3, [r7, #4]
 114 0084 1B68     		ldr	r3, [r3]
 115 0086 7A68     		ldr	r2, [r7, #4]
 116 0088 9268     		ldr	r2, [r2, #8]
 117 008a 42F40442 		orr	r2, r2, #33792
 118 008e 9A60     		str	r2, [r3, #8]
 119              	.L5:
 450:Drivers/STM32F3xx_HAL_Driver/Src/stm32f3xx_hal_i2c.c ****     }
 451:Drivers/STM32F3xx_HAL_Driver/Src/stm32f3xx_hal_i2c.c ****   }
 452:Drivers/STM32F3xx_HAL_Driver/Src/stm32f3xx_hal_i2c.c **** 
ARM GAS  /tmp/cccd70Af.s 			page 11


 453:Drivers/STM32F3xx_HAL_Driver/Src/stm32f3xx_hal_i2c.c ****   /*---------------------------- I2Cx CR2 Configuration ----------------------*/
 454:Drivers/STM32F3xx_HAL_Driver/Src/stm32f3xx_hal_i2c.c ****   /* Configure I2Cx: Addressing Master mode */
 455:Drivers/STM32F3xx_HAL_Driver/Src/stm32f3xx_hal_i2c.c ****   if(hi2c->Init.AddressingMode == I2C_ADDRESSINGMODE_10BIT)
 120              		.loc 1 455 0
 121 0090 7B68     		ldr	r3, [r7, #4]
 122 0092 DB68     		ldr	r3, [r3, #12]
 123 0094 022B     		cmp	r3, #2
 124 0096 04D1     		bne	.L7
 456:Drivers/STM32F3xx_HAL_Driver/Src/stm32f3xx_hal_i2c.c ****   {
 457:Drivers/STM32F3xx_HAL_Driver/Src/stm32f3xx_hal_i2c.c ****     hi2c->Instance->CR2 = (I2C_CR2_ADD10);
 125              		.loc 1 457 0
 126 0098 7B68     		ldr	r3, [r7, #4]
 127 009a 1B68     		ldr	r3, [r3]
 128 009c 4FF40062 		mov	r2, #2048
 129 00a0 5A60     		str	r2, [r3, #4]
 130              	.L7:
 458:Drivers/STM32F3xx_HAL_Driver/Src/stm32f3xx_hal_i2c.c ****   }
 459:Drivers/STM32F3xx_HAL_Driver/Src/stm32f3xx_hal_i2c.c ****   /* Enable the AUTOEND by default, and enable NACK (should be disable only during Slave process */
 460:Drivers/STM32F3xx_HAL_Driver/Src/stm32f3xx_hal_i2c.c ****   hi2c->Instance->CR2 |= (I2C_CR2_AUTOEND | I2C_CR2_NACK);
 131              		.loc 1 460 0
 132 00a2 7B68     		ldr	r3, [r7, #4]
 133 00a4 1A68     		ldr	r2, [r3]
 134 00a6 7B68     		ldr	r3, [r7, #4]
 135 00a8 1B68     		ldr	r3, [r3]
 136 00aa 5B68     		ldr	r3, [r3, #4]
 137 00ac 43F00073 		orr	r3, r3, #33554432
 138 00b0 43F40043 		orr	r3, r3, #32768
 139 00b4 5360     		str	r3, [r2, #4]
 461:Drivers/STM32F3xx_HAL_Driver/Src/stm32f3xx_hal_i2c.c **** 
 462:Drivers/STM32F3xx_HAL_Driver/Src/stm32f3xx_hal_i2c.c ****   /*---------------------------- I2Cx OAR2 Configuration ---------------------*/
 463:Drivers/STM32F3xx_HAL_Driver/Src/stm32f3xx_hal_i2c.c ****   /* Configure I2Cx: Dual mode and Own Address2 */
 464:Drivers/STM32F3xx_HAL_Driver/Src/stm32f3xx_hal_i2c.c ****   hi2c->Instance->OAR2 = (hi2c->Init.DualAddressMode | hi2c->Init.OwnAddress2 | (hi2c->Init.OwnAddr
 140              		.loc 1 464 0
 141 00b6 7B68     		ldr	r3, [r7, #4]
 142 00b8 1B68     		ldr	r3, [r3]
 143 00ba 7A68     		ldr	r2, [r7, #4]
 144 00bc 1169     		ldr	r1, [r2, #16]
 145 00be 7A68     		ldr	r2, [r7, #4]
 146 00c0 5269     		ldr	r2, [r2, #20]
 147 00c2 1143     		orrs	r1, r1, r2
 148 00c4 7A68     		ldr	r2, [r7, #4]
 149 00c6 9269     		ldr	r2, [r2, #24]
 150 00c8 1202     		lsls	r2, r2, #8
 151 00ca 0A43     		orrs	r2, r2, r1
 152 00cc DA60     		str	r2, [r3, #12]
 465:Drivers/STM32F3xx_HAL_Driver/Src/stm32f3xx_hal_i2c.c **** 
 466:Drivers/STM32F3xx_HAL_Driver/Src/stm32f3xx_hal_i2c.c ****   /*---------------------------- I2Cx CR1 Configuration ----------------------*/
 467:Drivers/STM32F3xx_HAL_Driver/Src/stm32f3xx_hal_i2c.c ****   /* Configure I2Cx: Generalcall and NoStretch mode */
 468:Drivers/STM32F3xx_HAL_Driver/Src/stm32f3xx_hal_i2c.c ****   hi2c->Instance->CR1 = (hi2c->Init.GeneralCallMode | hi2c->Init.NoStretchMode);
 153              		.loc 1 468 0
 154 00ce 7B68     		ldr	r3, [r7, #4]
 155 00d0 1B68     		ldr	r3, [r3]
 156 00d2 7A68     		ldr	r2, [r7, #4]
 157 00d4 D169     		ldr	r1, [r2, #28]
 158 00d6 7A68     		ldr	r2, [r7, #4]
 159 00d8 126A     		ldr	r2, [r2, #32]
 160 00da 0A43     		orrs	r2, r2, r1
ARM GAS  /tmp/cccd70Af.s 			page 12


 161 00dc 1A60     		str	r2, [r3]
 469:Drivers/STM32F3xx_HAL_Driver/Src/stm32f3xx_hal_i2c.c **** 
 470:Drivers/STM32F3xx_HAL_Driver/Src/stm32f3xx_hal_i2c.c ****   /* Enable the selected I2C peripheral */
 471:Drivers/STM32F3xx_HAL_Driver/Src/stm32f3xx_hal_i2c.c ****   __HAL_I2C_ENABLE(hi2c);
 162              		.loc 1 471 0
 163 00de 7B68     		ldr	r3, [r7, #4]
 164 00e0 1B68     		ldr	r3, [r3]
 165 00e2 7A68     		ldr	r2, [r7, #4]
 166 00e4 1268     		ldr	r2, [r2]
 167 00e6 1268     		ldr	r2, [r2]
 168 00e8 42F00102 		orr	r2, r2, #1
 169 00ec 1A60     		str	r2, [r3]
 472:Drivers/STM32F3xx_HAL_Driver/Src/stm32f3xx_hal_i2c.c **** 
 473:Drivers/STM32F3xx_HAL_Driver/Src/stm32f3xx_hal_i2c.c ****   hi2c->ErrorCode = HAL_I2C_ERROR_NONE;
 170              		.loc 1 473 0
 171 00ee 7B68     		ldr	r3, [r7, #4]
 172 00f0 0022     		movs	r2, #0
 173 00f2 5A64     		str	r2, [r3, #68]
 474:Drivers/STM32F3xx_HAL_Driver/Src/stm32f3xx_hal_i2c.c ****   hi2c->State = HAL_I2C_STATE_READY;
 174              		.loc 1 474 0
 175 00f4 7B68     		ldr	r3, [r7, #4]
 176 00f6 2022     		movs	r2, #32
 177 00f8 83F84120 		strb	r2, [r3, #65]
 475:Drivers/STM32F3xx_HAL_Driver/Src/stm32f3xx_hal_i2c.c ****   hi2c->PreviousState = I2C_STATE_NONE;
 178              		.loc 1 475 0
 179 00fc 7B68     		ldr	r3, [r7, #4]
 180 00fe 0022     		movs	r2, #0
 181 0100 1A63     		str	r2, [r3, #48]
 476:Drivers/STM32F3xx_HAL_Driver/Src/stm32f3xx_hal_i2c.c ****   hi2c->Mode = HAL_I2C_MODE_NONE;
 182              		.loc 1 476 0
 183 0102 7B68     		ldr	r3, [r7, #4]
 184 0104 0022     		movs	r2, #0
 185 0106 83F84220 		strb	r2, [r3, #66]
 477:Drivers/STM32F3xx_HAL_Driver/Src/stm32f3xx_hal_i2c.c **** 
 478:Drivers/STM32F3xx_HAL_Driver/Src/stm32f3xx_hal_i2c.c ****   return HAL_OK;
 186              		.loc 1 478 0
 187 010a 0023     		movs	r3, #0
 188              	.L3:
 479:Drivers/STM32F3xx_HAL_Driver/Src/stm32f3xx_hal_i2c.c **** }
 189              		.loc 1 479 0
 190 010c 1846     		mov	r0, r3
 191 010e 0837     		adds	r7, r7, #8
 192 0110 BD46     		mov	sp, r7
 193              		@ sp needed
 194 0112 80BD     		pop	{r7, pc}
 195              		.cfi_endproc
 196              	.LFE125:
 198              		.section	.text.HAL_I2C_DeInit,"ax",%progbits
 199              		.align	2
 200              		.global	HAL_I2C_DeInit
 201              		.thumb
 202              		.thumb_func
 204              	HAL_I2C_DeInit:
 205              	.LFB126:
 480:Drivers/STM32F3xx_HAL_Driver/Src/stm32f3xx_hal_i2c.c **** 
 481:Drivers/STM32F3xx_HAL_Driver/Src/stm32f3xx_hal_i2c.c **** /**
 482:Drivers/STM32F3xx_HAL_Driver/Src/stm32f3xx_hal_i2c.c ****   * @brief  DeInitialize the I2C peripheral. 
ARM GAS  /tmp/cccd70Af.s 			page 13


 483:Drivers/STM32F3xx_HAL_Driver/Src/stm32f3xx_hal_i2c.c ****   * @param  hi2c Pointer to a I2C_HandleTypeDef structure that contains
 484:Drivers/STM32F3xx_HAL_Driver/Src/stm32f3xx_hal_i2c.c ****   *                the configuration information for the specified I2C.
 485:Drivers/STM32F3xx_HAL_Driver/Src/stm32f3xx_hal_i2c.c ****   * @retval HAL status
 486:Drivers/STM32F3xx_HAL_Driver/Src/stm32f3xx_hal_i2c.c ****   */
 487:Drivers/STM32F3xx_HAL_Driver/Src/stm32f3xx_hal_i2c.c **** HAL_StatusTypeDef HAL_I2C_DeInit(I2C_HandleTypeDef *hi2c)
 488:Drivers/STM32F3xx_HAL_Driver/Src/stm32f3xx_hal_i2c.c **** {
 206              		.loc 1 488 0
 207              		.cfi_startproc
 208              		@ args = 0, pretend = 0, frame = 8
 209              		@ frame_needed = 1, uses_anonymous_args = 0
 210 0000 80B5     		push	{r7, lr}
 211              	.LCFI3:
 212              		.cfi_def_cfa_offset 8
 213              		.cfi_offset 7, -8
 214              		.cfi_offset 14, -4
 215 0002 82B0     		sub	sp, sp, #8
 216              	.LCFI4:
 217              		.cfi_def_cfa_offset 16
 218 0004 00AF     		add	r7, sp, #0
 219              	.LCFI5:
 220              		.cfi_def_cfa_register 7
 221 0006 7860     		str	r0, [r7, #4]
 489:Drivers/STM32F3xx_HAL_Driver/Src/stm32f3xx_hal_i2c.c ****   /* Check the I2C handle allocation */
 490:Drivers/STM32F3xx_HAL_Driver/Src/stm32f3xx_hal_i2c.c ****   if(hi2c == NULL)
 222              		.loc 1 490 0
 223 0008 7B68     		ldr	r3, [r7, #4]
 224 000a 002B     		cmp	r3, #0
 225 000c 01D1     		bne	.L9
 491:Drivers/STM32F3xx_HAL_Driver/Src/stm32f3xx_hal_i2c.c ****   {
 492:Drivers/STM32F3xx_HAL_Driver/Src/stm32f3xx_hal_i2c.c ****     return HAL_ERROR;
 226              		.loc 1 492 0
 227 000e 0123     		movs	r3, #1
 228 0010 21E0     		b	.L10
 229              	.L9:
 493:Drivers/STM32F3xx_HAL_Driver/Src/stm32f3xx_hal_i2c.c ****   }
 494:Drivers/STM32F3xx_HAL_Driver/Src/stm32f3xx_hal_i2c.c **** 
 495:Drivers/STM32F3xx_HAL_Driver/Src/stm32f3xx_hal_i2c.c ****   /* Check the parameters */
 496:Drivers/STM32F3xx_HAL_Driver/Src/stm32f3xx_hal_i2c.c ****   assert_param(IS_I2C_ALL_INSTANCE(hi2c->Instance));
 497:Drivers/STM32F3xx_HAL_Driver/Src/stm32f3xx_hal_i2c.c **** 
 498:Drivers/STM32F3xx_HAL_Driver/Src/stm32f3xx_hal_i2c.c ****   hi2c->State = HAL_I2C_STATE_BUSY;
 230              		.loc 1 498 0
 231 0012 7B68     		ldr	r3, [r7, #4]
 232 0014 2422     		movs	r2, #36
 233 0016 83F84120 		strb	r2, [r3, #65]
 499:Drivers/STM32F3xx_HAL_Driver/Src/stm32f3xx_hal_i2c.c **** 
 500:Drivers/STM32F3xx_HAL_Driver/Src/stm32f3xx_hal_i2c.c ****   /* Disable the I2C Peripheral Clock */
 501:Drivers/STM32F3xx_HAL_Driver/Src/stm32f3xx_hal_i2c.c ****   __HAL_I2C_DISABLE(hi2c);
 234              		.loc 1 501 0
 235 001a 7B68     		ldr	r3, [r7, #4]
 236 001c 1B68     		ldr	r3, [r3]
 237 001e 7A68     		ldr	r2, [r7, #4]
 238 0020 1268     		ldr	r2, [r2]
 239 0022 1268     		ldr	r2, [r2]
 240 0024 22F00102 		bic	r2, r2, #1
 241 0028 1A60     		str	r2, [r3]
 502:Drivers/STM32F3xx_HAL_Driver/Src/stm32f3xx_hal_i2c.c **** 
 503:Drivers/STM32F3xx_HAL_Driver/Src/stm32f3xx_hal_i2c.c ****   /* DeInit the low level hardware: GPIO, CLOCK, NVIC */
ARM GAS  /tmp/cccd70Af.s 			page 14


 504:Drivers/STM32F3xx_HAL_Driver/Src/stm32f3xx_hal_i2c.c ****   HAL_I2C_MspDeInit(hi2c);
 242              		.loc 1 504 0
 243 002a 7868     		ldr	r0, [r7, #4]
 244 002c FFF7FEFF 		bl	HAL_I2C_MspDeInit
 505:Drivers/STM32F3xx_HAL_Driver/Src/stm32f3xx_hal_i2c.c **** 
 506:Drivers/STM32F3xx_HAL_Driver/Src/stm32f3xx_hal_i2c.c ****   hi2c->ErrorCode = HAL_I2C_ERROR_NONE;
 245              		.loc 1 506 0
 246 0030 7B68     		ldr	r3, [r7, #4]
 247 0032 0022     		movs	r2, #0
 248 0034 5A64     		str	r2, [r3, #68]
 507:Drivers/STM32F3xx_HAL_Driver/Src/stm32f3xx_hal_i2c.c ****   hi2c->State = HAL_I2C_STATE_RESET;
 249              		.loc 1 507 0
 250 0036 7B68     		ldr	r3, [r7, #4]
 251 0038 0022     		movs	r2, #0
 252 003a 83F84120 		strb	r2, [r3, #65]
 508:Drivers/STM32F3xx_HAL_Driver/Src/stm32f3xx_hal_i2c.c ****   hi2c->PreviousState = I2C_STATE_NONE;
 253              		.loc 1 508 0
 254 003e 7B68     		ldr	r3, [r7, #4]
 255 0040 0022     		movs	r2, #0
 256 0042 1A63     		str	r2, [r3, #48]
 509:Drivers/STM32F3xx_HAL_Driver/Src/stm32f3xx_hal_i2c.c ****   hi2c->Mode = HAL_I2C_MODE_NONE;
 257              		.loc 1 509 0
 258 0044 7B68     		ldr	r3, [r7, #4]
 259 0046 0022     		movs	r2, #0
 260 0048 83F84220 		strb	r2, [r3, #66]
 510:Drivers/STM32F3xx_HAL_Driver/Src/stm32f3xx_hal_i2c.c **** 
 511:Drivers/STM32F3xx_HAL_Driver/Src/stm32f3xx_hal_i2c.c ****   /* Release Lock */
 512:Drivers/STM32F3xx_HAL_Driver/Src/stm32f3xx_hal_i2c.c ****   __HAL_UNLOCK(hi2c);
 261              		.loc 1 512 0
 262 004c 7B68     		ldr	r3, [r7, #4]
 263 004e 0022     		movs	r2, #0
 264 0050 83F84020 		strb	r2, [r3, #64]
 513:Drivers/STM32F3xx_HAL_Driver/Src/stm32f3xx_hal_i2c.c **** 
 514:Drivers/STM32F3xx_HAL_Driver/Src/stm32f3xx_hal_i2c.c ****   return HAL_OK;
 265              		.loc 1 514 0
 266 0054 0023     		movs	r3, #0
 267              	.L10:
 515:Drivers/STM32F3xx_HAL_Driver/Src/stm32f3xx_hal_i2c.c **** }
 268              		.loc 1 515 0
 269 0056 1846     		mov	r0, r3
 270 0058 0837     		adds	r7, r7, #8
 271 005a BD46     		mov	sp, r7
 272              		@ sp needed
 273 005c 80BD     		pop	{r7, pc}
 274              		.cfi_endproc
 275              	.LFE126:
 277 005e 00BF     		.section	.text.HAL_I2C_MspInit,"ax",%progbits
 278              		.align	2
 279              		.weak	HAL_I2C_MspInit
 280              		.thumb
 281              		.thumb_func
 283              	HAL_I2C_MspInit:
 284              	.LFB127:
 516:Drivers/STM32F3xx_HAL_Driver/Src/stm32f3xx_hal_i2c.c **** 
 517:Drivers/STM32F3xx_HAL_Driver/Src/stm32f3xx_hal_i2c.c **** /**
 518:Drivers/STM32F3xx_HAL_Driver/Src/stm32f3xx_hal_i2c.c ****   * @brief Initialize the I2C MSP.
 519:Drivers/STM32F3xx_HAL_Driver/Src/stm32f3xx_hal_i2c.c ****   * @param  hi2c Pointer to a I2C_HandleTypeDef structure that contains
ARM GAS  /tmp/cccd70Af.s 			page 15


 520:Drivers/STM32F3xx_HAL_Driver/Src/stm32f3xx_hal_i2c.c ****   *                the configuration information for the specified I2C.
 521:Drivers/STM32F3xx_HAL_Driver/Src/stm32f3xx_hal_i2c.c ****   * @retval None
 522:Drivers/STM32F3xx_HAL_Driver/Src/stm32f3xx_hal_i2c.c ****   */
 523:Drivers/STM32F3xx_HAL_Driver/Src/stm32f3xx_hal_i2c.c ****  __weak void HAL_I2C_MspInit(I2C_HandleTypeDef *hi2c)
 524:Drivers/STM32F3xx_HAL_Driver/Src/stm32f3xx_hal_i2c.c **** {
 285              		.loc 1 524 0
 286              		.cfi_startproc
 287              		@ args = 0, pretend = 0, frame = 8
 288              		@ frame_needed = 1, uses_anonymous_args = 0
 289              		@ link register save eliminated.
 290 0000 80B4     		push	{r7}
 291              	.LCFI6:
 292              		.cfi_def_cfa_offset 4
 293              		.cfi_offset 7, -4
 294 0002 83B0     		sub	sp, sp, #12
 295              	.LCFI7:
 296              		.cfi_def_cfa_offset 16
 297 0004 00AF     		add	r7, sp, #0
 298              	.LCFI8:
 299              		.cfi_def_cfa_register 7
 300 0006 7860     		str	r0, [r7, #4]
 525:Drivers/STM32F3xx_HAL_Driver/Src/stm32f3xx_hal_i2c.c ****   /* Prevent unused argument(s) compilation warning */
 526:Drivers/STM32F3xx_HAL_Driver/Src/stm32f3xx_hal_i2c.c ****   UNUSED(hi2c);
 527:Drivers/STM32F3xx_HAL_Driver/Src/stm32f3xx_hal_i2c.c **** 
 528:Drivers/STM32F3xx_HAL_Driver/Src/stm32f3xx_hal_i2c.c ****   /* NOTE : This function should not be modified, when the callback is needed,
 529:Drivers/STM32F3xx_HAL_Driver/Src/stm32f3xx_hal_i2c.c ****             the HAL_I2C_MspInit could be implemented in the user file
 530:Drivers/STM32F3xx_HAL_Driver/Src/stm32f3xx_hal_i2c.c ****    */ 
 531:Drivers/STM32F3xx_HAL_Driver/Src/stm32f3xx_hal_i2c.c **** }
 301              		.loc 1 531 0
 302 0008 0C37     		adds	r7, r7, #12
 303 000a BD46     		mov	sp, r7
 304              		@ sp needed
 305 000c 5DF8047B 		ldr	r7, [sp], #4
 306 0010 7047     		bx	lr
 307              		.cfi_endproc
 308              	.LFE127:
 310 0012 00BF     		.section	.text.HAL_I2C_MspDeInit,"ax",%progbits
 311              		.align	2
 312              		.weak	HAL_I2C_MspDeInit
 313              		.thumb
 314              		.thumb_func
 316              	HAL_I2C_MspDeInit:
 317              	.LFB128:
 532:Drivers/STM32F3xx_HAL_Driver/Src/stm32f3xx_hal_i2c.c **** 
 533:Drivers/STM32F3xx_HAL_Driver/Src/stm32f3xx_hal_i2c.c **** /**
 534:Drivers/STM32F3xx_HAL_Driver/Src/stm32f3xx_hal_i2c.c ****   * @brief DeInitialize the I2C MSP.
 535:Drivers/STM32F3xx_HAL_Driver/Src/stm32f3xx_hal_i2c.c ****   * @param  hi2c Pointer to a I2C_HandleTypeDef structure that contains
 536:Drivers/STM32F3xx_HAL_Driver/Src/stm32f3xx_hal_i2c.c ****   *                the configuration information for the specified I2C.
 537:Drivers/STM32F3xx_HAL_Driver/Src/stm32f3xx_hal_i2c.c ****   * @retval None
 538:Drivers/STM32F3xx_HAL_Driver/Src/stm32f3xx_hal_i2c.c ****   */
 539:Drivers/STM32F3xx_HAL_Driver/Src/stm32f3xx_hal_i2c.c ****  __weak void HAL_I2C_MspDeInit(I2C_HandleTypeDef *hi2c)
 540:Drivers/STM32F3xx_HAL_Driver/Src/stm32f3xx_hal_i2c.c **** {
 318              		.loc 1 540 0
 319              		.cfi_startproc
 320              		@ args = 0, pretend = 0, frame = 8
 321              		@ frame_needed = 1, uses_anonymous_args = 0
 322              		@ link register save eliminated.
ARM GAS  /tmp/cccd70Af.s 			page 16


 323 0000 80B4     		push	{r7}
 324              	.LCFI9:
 325              		.cfi_def_cfa_offset 4
 326              		.cfi_offset 7, -4
 327 0002 83B0     		sub	sp, sp, #12
 328              	.LCFI10:
 329              		.cfi_def_cfa_offset 16
 330 0004 00AF     		add	r7, sp, #0
 331              	.LCFI11:
 332              		.cfi_def_cfa_register 7
 333 0006 7860     		str	r0, [r7, #4]
 541:Drivers/STM32F3xx_HAL_Driver/Src/stm32f3xx_hal_i2c.c ****   /* Prevent unused argument(s) compilation warning */
 542:Drivers/STM32F3xx_HAL_Driver/Src/stm32f3xx_hal_i2c.c ****   UNUSED(hi2c);
 543:Drivers/STM32F3xx_HAL_Driver/Src/stm32f3xx_hal_i2c.c **** 
 544:Drivers/STM32F3xx_HAL_Driver/Src/stm32f3xx_hal_i2c.c ****   /* NOTE : This function should not be modified, when the callback is needed,
 545:Drivers/STM32F3xx_HAL_Driver/Src/stm32f3xx_hal_i2c.c ****             the HAL_I2C_MspDeInit could be implemented in the user file
 546:Drivers/STM32F3xx_HAL_Driver/Src/stm32f3xx_hal_i2c.c ****    */ 
 547:Drivers/STM32F3xx_HAL_Driver/Src/stm32f3xx_hal_i2c.c **** }
 334              		.loc 1 547 0
 335 0008 0C37     		adds	r7, r7, #12
 336 000a BD46     		mov	sp, r7
 337              		@ sp needed
 338 000c 5DF8047B 		ldr	r7, [sp], #4
 339 0010 7047     		bx	lr
 340              		.cfi_endproc
 341              	.LFE128:
 343 0012 00BF     		.section	.text.HAL_I2C_Master_Transmit,"ax",%progbits
 344              		.align	2
 345              		.global	HAL_I2C_Master_Transmit
 346              		.thumb
 347              		.thumb_func
 349              	HAL_I2C_Master_Transmit:
 350              	.LFB129:
 548:Drivers/STM32F3xx_HAL_Driver/Src/stm32f3xx_hal_i2c.c **** 
 549:Drivers/STM32F3xx_HAL_Driver/Src/stm32f3xx_hal_i2c.c **** /**
 550:Drivers/STM32F3xx_HAL_Driver/Src/stm32f3xx_hal_i2c.c ****   * @}
 551:Drivers/STM32F3xx_HAL_Driver/Src/stm32f3xx_hal_i2c.c ****   */
 552:Drivers/STM32F3xx_HAL_Driver/Src/stm32f3xx_hal_i2c.c **** 
 553:Drivers/STM32F3xx_HAL_Driver/Src/stm32f3xx_hal_i2c.c **** /** @defgroup I2C_Exported_Functions_Group2 Input and Output operation functions 
 554:Drivers/STM32F3xx_HAL_Driver/Src/stm32f3xx_hal_i2c.c ****  *  @brief   Data transfers functions 
 555:Drivers/STM32F3xx_HAL_Driver/Src/stm32f3xx_hal_i2c.c ****  *
 556:Drivers/STM32F3xx_HAL_Driver/Src/stm32f3xx_hal_i2c.c **** @verbatim   
 557:Drivers/STM32F3xx_HAL_Driver/Src/stm32f3xx_hal_i2c.c ****  ===============================================================================
 558:Drivers/STM32F3xx_HAL_Driver/Src/stm32f3xx_hal_i2c.c ****                       ##### IO operation functions #####
 559:Drivers/STM32F3xx_HAL_Driver/Src/stm32f3xx_hal_i2c.c ****  ===============================================================================  
 560:Drivers/STM32F3xx_HAL_Driver/Src/stm32f3xx_hal_i2c.c ****     [..]
 561:Drivers/STM32F3xx_HAL_Driver/Src/stm32f3xx_hal_i2c.c ****     This subsection provides a set of functions allowing to manage the I2C data 
 562:Drivers/STM32F3xx_HAL_Driver/Src/stm32f3xx_hal_i2c.c ****     transfers.
 563:Drivers/STM32F3xx_HAL_Driver/Src/stm32f3xx_hal_i2c.c **** 
 564:Drivers/STM32F3xx_HAL_Driver/Src/stm32f3xx_hal_i2c.c ****     (#) There are two modes of transfer:
 565:Drivers/STM32F3xx_HAL_Driver/Src/stm32f3xx_hal_i2c.c ****        (++) Blocking mode : The communication is performed in the polling mode. 
 566:Drivers/STM32F3xx_HAL_Driver/Src/stm32f3xx_hal_i2c.c ****             The status of all data processing is returned by the same function 
 567:Drivers/STM32F3xx_HAL_Driver/Src/stm32f3xx_hal_i2c.c ****             after finishing transfer.  
 568:Drivers/STM32F3xx_HAL_Driver/Src/stm32f3xx_hal_i2c.c ****        (++) No-Blocking mode : The communication is performed using Interrupts 
 569:Drivers/STM32F3xx_HAL_Driver/Src/stm32f3xx_hal_i2c.c ****             or DMA. These functions return the status of the transfer startup.
 570:Drivers/STM32F3xx_HAL_Driver/Src/stm32f3xx_hal_i2c.c ****             The end of the data processing will be indicated through the 
 571:Drivers/STM32F3xx_HAL_Driver/Src/stm32f3xx_hal_i2c.c ****             dedicated I2C IRQ when using Interrupt mode or the DMA IRQ when 
ARM GAS  /tmp/cccd70Af.s 			page 17


 572:Drivers/STM32F3xx_HAL_Driver/Src/stm32f3xx_hal_i2c.c ****             using DMA mode.
 573:Drivers/STM32F3xx_HAL_Driver/Src/stm32f3xx_hal_i2c.c **** 
 574:Drivers/STM32F3xx_HAL_Driver/Src/stm32f3xx_hal_i2c.c ****     (#) Blocking mode functions are :
 575:Drivers/STM32F3xx_HAL_Driver/Src/stm32f3xx_hal_i2c.c ****         (++) HAL_I2C_Master_Transmit()
 576:Drivers/STM32F3xx_HAL_Driver/Src/stm32f3xx_hal_i2c.c ****         (++) HAL_I2C_Master_Receive()
 577:Drivers/STM32F3xx_HAL_Driver/Src/stm32f3xx_hal_i2c.c ****         (++) HAL_I2C_Slave_Transmit()
 578:Drivers/STM32F3xx_HAL_Driver/Src/stm32f3xx_hal_i2c.c ****         (++) HAL_I2C_Slave_Receive()
 579:Drivers/STM32F3xx_HAL_Driver/Src/stm32f3xx_hal_i2c.c ****         (++) HAL_I2C_Mem_Write()
 580:Drivers/STM32F3xx_HAL_Driver/Src/stm32f3xx_hal_i2c.c ****         (++) HAL_I2C_Mem_Read()
 581:Drivers/STM32F3xx_HAL_Driver/Src/stm32f3xx_hal_i2c.c ****         (++) HAL_I2C_IsDeviceReady()
 582:Drivers/STM32F3xx_HAL_Driver/Src/stm32f3xx_hal_i2c.c ****         
 583:Drivers/STM32F3xx_HAL_Driver/Src/stm32f3xx_hal_i2c.c ****     (#) No-Blocking mode functions with Interrupt are :
 584:Drivers/STM32F3xx_HAL_Driver/Src/stm32f3xx_hal_i2c.c ****         (++) HAL_I2C_Master_Transmit_IT()
 585:Drivers/STM32F3xx_HAL_Driver/Src/stm32f3xx_hal_i2c.c ****         (++) HAL_I2C_Master_Receive_IT()
 586:Drivers/STM32F3xx_HAL_Driver/Src/stm32f3xx_hal_i2c.c ****         (++) HAL_I2C_Slave_Transmit_IT()
 587:Drivers/STM32F3xx_HAL_Driver/Src/stm32f3xx_hal_i2c.c ****         (++) HAL_I2C_Slave_Receive_IT()
 588:Drivers/STM32F3xx_HAL_Driver/Src/stm32f3xx_hal_i2c.c ****         (++) HAL_I2C_Mem_Write_IT()
 589:Drivers/STM32F3xx_HAL_Driver/Src/stm32f3xx_hal_i2c.c ****         (++) HAL_I2C_Mem_Read_IT()
 590:Drivers/STM32F3xx_HAL_Driver/Src/stm32f3xx_hal_i2c.c **** 
 591:Drivers/STM32F3xx_HAL_Driver/Src/stm32f3xx_hal_i2c.c ****     (#) No-Blocking mode functions with DMA are :
 592:Drivers/STM32F3xx_HAL_Driver/Src/stm32f3xx_hal_i2c.c ****         (++) HAL_I2C_Master_Transmit_DMA()
 593:Drivers/STM32F3xx_HAL_Driver/Src/stm32f3xx_hal_i2c.c ****         (++) HAL_I2C_Master_Receive_DMA()
 594:Drivers/STM32F3xx_HAL_Driver/Src/stm32f3xx_hal_i2c.c ****         (++) HAL_I2C_Slave_Transmit_DMA()
 595:Drivers/STM32F3xx_HAL_Driver/Src/stm32f3xx_hal_i2c.c ****         (++) HAL_I2C_Slave_Receive_DMA()
 596:Drivers/STM32F3xx_HAL_Driver/Src/stm32f3xx_hal_i2c.c ****         (++) HAL_I2C_Mem_Write_DMA()
 597:Drivers/STM32F3xx_HAL_Driver/Src/stm32f3xx_hal_i2c.c ****         (++) HAL_I2C_Mem_Read_DMA()
 598:Drivers/STM32F3xx_HAL_Driver/Src/stm32f3xx_hal_i2c.c **** 
 599:Drivers/STM32F3xx_HAL_Driver/Src/stm32f3xx_hal_i2c.c ****     (#) A set of Transfer Complete Callbacks are provided in non Blocking mode:
 600:Drivers/STM32F3xx_HAL_Driver/Src/stm32f3xx_hal_i2c.c ****         (++) HAL_I2C_MemTxCpltCallback()
 601:Drivers/STM32F3xx_HAL_Driver/Src/stm32f3xx_hal_i2c.c ****         (++) HAL_I2C_MemRxCpltCallback()
 602:Drivers/STM32F3xx_HAL_Driver/Src/stm32f3xx_hal_i2c.c ****         (++) HAL_I2C_MasterTxCpltCallback()
 603:Drivers/STM32F3xx_HAL_Driver/Src/stm32f3xx_hal_i2c.c ****         (++) HAL_I2C_MasterRxCpltCallback()
 604:Drivers/STM32F3xx_HAL_Driver/Src/stm32f3xx_hal_i2c.c ****         (++) HAL_I2C_SlaveTxCpltCallback()
 605:Drivers/STM32F3xx_HAL_Driver/Src/stm32f3xx_hal_i2c.c ****         (++) HAL_I2C_SlaveRxCpltCallback()
 606:Drivers/STM32F3xx_HAL_Driver/Src/stm32f3xx_hal_i2c.c ****         (++) HAL_I2C_ErrorCallback()
 607:Drivers/STM32F3xx_HAL_Driver/Src/stm32f3xx_hal_i2c.c **** 
 608:Drivers/STM32F3xx_HAL_Driver/Src/stm32f3xx_hal_i2c.c **** @endverbatim
 609:Drivers/STM32F3xx_HAL_Driver/Src/stm32f3xx_hal_i2c.c ****   * @{
 610:Drivers/STM32F3xx_HAL_Driver/Src/stm32f3xx_hal_i2c.c ****   */
 611:Drivers/STM32F3xx_HAL_Driver/Src/stm32f3xx_hal_i2c.c **** 
 612:Drivers/STM32F3xx_HAL_Driver/Src/stm32f3xx_hal_i2c.c **** /**
 613:Drivers/STM32F3xx_HAL_Driver/Src/stm32f3xx_hal_i2c.c ****   * @brief  Transmits in master mode an amount of data in blocking mode.
 614:Drivers/STM32F3xx_HAL_Driver/Src/stm32f3xx_hal_i2c.c ****   * @param  hi2c Pointer to a I2C_HandleTypeDef structure that contains
 615:Drivers/STM32F3xx_HAL_Driver/Src/stm32f3xx_hal_i2c.c ****   *                the configuration information for the specified I2C.
 616:Drivers/STM32F3xx_HAL_Driver/Src/stm32f3xx_hal_i2c.c ****   * @param  DevAddress Target device address
 617:Drivers/STM32F3xx_HAL_Driver/Src/stm32f3xx_hal_i2c.c ****   * @param  pData Pointer to data buffer
 618:Drivers/STM32F3xx_HAL_Driver/Src/stm32f3xx_hal_i2c.c ****   * @param  Size Amount of data to be sent
 619:Drivers/STM32F3xx_HAL_Driver/Src/stm32f3xx_hal_i2c.c ****   * @param  Timeout Timeout duration
 620:Drivers/STM32F3xx_HAL_Driver/Src/stm32f3xx_hal_i2c.c ****   * @retval HAL status
 621:Drivers/STM32F3xx_HAL_Driver/Src/stm32f3xx_hal_i2c.c ****   */
 622:Drivers/STM32F3xx_HAL_Driver/Src/stm32f3xx_hal_i2c.c **** HAL_StatusTypeDef HAL_I2C_Master_Transmit(I2C_HandleTypeDef *hi2c, uint16_t DevAddress, uint8_t *pD
 623:Drivers/STM32F3xx_HAL_Driver/Src/stm32f3xx_hal_i2c.c **** {
 351              		.loc 1 623 0
 352              		.cfi_startproc
 353              		@ args = 4, pretend = 0, frame = 24
 354              		@ frame_needed = 1, uses_anonymous_args = 0
 355 0000 80B5     		push	{r7, lr}
ARM GAS  /tmp/cccd70Af.s 			page 18


 356              	.LCFI12:
 357              		.cfi_def_cfa_offset 8
 358              		.cfi_offset 7, -8
 359              		.cfi_offset 14, -4
 360 0002 88B0     		sub	sp, sp, #32
 361              	.LCFI13:
 362              		.cfi_def_cfa_offset 40
 363 0004 02AF     		add	r7, sp, #8
 364              	.LCFI14:
 365              		.cfi_def_cfa 7, 32
 366 0006 F860     		str	r0, [r7, #12]
 367 0008 7A60     		str	r2, [r7, #4]
 368 000a 0A46     		mov	r2, r1	@ movhi
 369 000c 7A81     		strh	r2, [r7, #10]	@ movhi
 370 000e 3B81     		strh	r3, [r7, #8]	@ movhi
 624:Drivers/STM32F3xx_HAL_Driver/Src/stm32f3xx_hal_i2c.c ****   uint32_t tickstart = 0U;
 371              		.loc 1 624 0
 372 0010 0023     		movs	r3, #0
 373 0012 7B61     		str	r3, [r7, #20]
 625:Drivers/STM32F3xx_HAL_Driver/Src/stm32f3xx_hal_i2c.c **** 
 626:Drivers/STM32F3xx_HAL_Driver/Src/stm32f3xx_hal_i2c.c ****   if(hi2c->State == HAL_I2C_STATE_READY)
 374              		.loc 1 626 0
 375 0014 FB68     		ldr	r3, [r7, #12]
 376 0016 93F84130 		ldrb	r3, [r3, #65]
 377 001a DBB2     		uxtb	r3, r3
 378 001c 202B     		cmp	r3, #32
 379 001e 40F0EE80 		bne	.L14
 627:Drivers/STM32F3xx_HAL_Driver/Src/stm32f3xx_hal_i2c.c ****   {
 628:Drivers/STM32F3xx_HAL_Driver/Src/stm32f3xx_hal_i2c.c ****     /* Process Locked */
 629:Drivers/STM32F3xx_HAL_Driver/Src/stm32f3xx_hal_i2c.c ****     __HAL_LOCK(hi2c);
 380              		.loc 1 629 0
 381 0022 FB68     		ldr	r3, [r7, #12]
 382 0024 93F84030 		ldrb	r3, [r3, #64]	@ zero_extendqisi2
 383 0028 012B     		cmp	r3, #1
 384 002a 01D1     		bne	.L15
 385              		.loc 1 629 0 is_stmt 0 discriminator 1
 386 002c 0223     		movs	r3, #2
 387 002e E7E0     		b	.L16
 388              	.L15:
 389              		.loc 1 629 0 discriminator 2
 390 0030 FB68     		ldr	r3, [r7, #12]
 391 0032 0122     		movs	r2, #1
 392 0034 83F84020 		strb	r2, [r3, #64]
 630:Drivers/STM32F3xx_HAL_Driver/Src/stm32f3xx_hal_i2c.c **** 
 631:Drivers/STM32F3xx_HAL_Driver/Src/stm32f3xx_hal_i2c.c ****     /* Init tickstart for timeout management*/
 632:Drivers/STM32F3xx_HAL_Driver/Src/stm32f3xx_hal_i2c.c ****     tickstart = HAL_GetTick();
 393              		.loc 1 632 0 is_stmt 1 discriminator 2
 394 0038 FFF7FEFF 		bl	HAL_GetTick
 395 003c 7861     		str	r0, [r7, #20]
 633:Drivers/STM32F3xx_HAL_Driver/Src/stm32f3xx_hal_i2c.c **** 
 634:Drivers/STM32F3xx_HAL_Driver/Src/stm32f3xx_hal_i2c.c ****     if(I2C_WaitOnFlagUntilTimeout(hi2c, I2C_FLAG_BUSY, SET, I2C_TIMEOUT_BUSY, tickstart) != HAL_OK)
 396              		.loc 1 634 0 discriminator 2
 397 003e 7B69     		ldr	r3, [r7, #20]
 398 0040 0093     		str	r3, [sp]
 399 0042 F868     		ldr	r0, [r7, #12]
 400 0044 4FF40041 		mov	r1, #32768
 401 0048 0122     		movs	r2, #1
ARM GAS  /tmp/cccd70Af.s 			page 19


 402 004a 1923     		movs	r3, #25
 403 004c FFF7FEFF 		bl	I2C_WaitOnFlagUntilTimeout
 404 0050 0346     		mov	r3, r0
 405 0052 002B     		cmp	r3, #0
 406 0054 01D0     		beq	.L17
 635:Drivers/STM32F3xx_HAL_Driver/Src/stm32f3xx_hal_i2c.c ****     {
 636:Drivers/STM32F3xx_HAL_Driver/Src/stm32f3xx_hal_i2c.c ****       return HAL_TIMEOUT;
 407              		.loc 1 636 0
 408 0056 0323     		movs	r3, #3
 409 0058 D2E0     		b	.L16
 410              	.L17:
 637:Drivers/STM32F3xx_HAL_Driver/Src/stm32f3xx_hal_i2c.c ****     }
 638:Drivers/STM32F3xx_HAL_Driver/Src/stm32f3xx_hal_i2c.c **** 
 639:Drivers/STM32F3xx_HAL_Driver/Src/stm32f3xx_hal_i2c.c ****     hi2c->State = HAL_I2C_STATE_BUSY_TX;
 411              		.loc 1 639 0
 412 005a FB68     		ldr	r3, [r7, #12]
 413 005c 2122     		movs	r2, #33
 414 005e 83F84120 		strb	r2, [r3, #65]
 640:Drivers/STM32F3xx_HAL_Driver/Src/stm32f3xx_hal_i2c.c ****     hi2c->Mode = HAL_I2C_MODE_MASTER;
 415              		.loc 1 640 0
 416 0062 FB68     		ldr	r3, [r7, #12]
 417 0064 1022     		movs	r2, #16
 418 0066 83F84220 		strb	r2, [r3, #66]
 641:Drivers/STM32F3xx_HAL_Driver/Src/stm32f3xx_hal_i2c.c ****     hi2c->ErrorCode   = HAL_I2C_ERROR_NONE;
 419              		.loc 1 641 0
 420 006a FB68     		ldr	r3, [r7, #12]
 421 006c 0022     		movs	r2, #0
 422 006e 5A64     		str	r2, [r3, #68]
 642:Drivers/STM32F3xx_HAL_Driver/Src/stm32f3xx_hal_i2c.c ****     
 643:Drivers/STM32F3xx_HAL_Driver/Src/stm32f3xx_hal_i2c.c ****     /* Prepare transfer parameters */
 644:Drivers/STM32F3xx_HAL_Driver/Src/stm32f3xx_hal_i2c.c ****     hi2c->pBuffPtr  = pData;
 423              		.loc 1 644 0
 424 0070 FB68     		ldr	r3, [r7, #12]
 425 0072 7A68     		ldr	r2, [r7, #4]
 426 0074 5A62     		str	r2, [r3, #36]
 645:Drivers/STM32F3xx_HAL_Driver/Src/stm32f3xx_hal_i2c.c ****     hi2c->XferCount = Size;
 427              		.loc 1 645 0
 428 0076 FB68     		ldr	r3, [r7, #12]
 429 0078 3A89     		ldrh	r2, [r7, #8]	@ movhi
 430 007a 5A85     		strh	r2, [r3, #42]	@ movhi
 646:Drivers/STM32F3xx_HAL_Driver/Src/stm32f3xx_hal_i2c.c ****     hi2c->XferISR   = NULL;
 431              		.loc 1 646 0
 432 007c FB68     		ldr	r3, [r7, #12]
 433 007e 0022     		movs	r2, #0
 434 0080 5A63     		str	r2, [r3, #52]
 647:Drivers/STM32F3xx_HAL_Driver/Src/stm32f3xx_hal_i2c.c **** 
 648:Drivers/STM32F3xx_HAL_Driver/Src/stm32f3xx_hal_i2c.c ****     /* Send Slave Address */
 649:Drivers/STM32F3xx_HAL_Driver/Src/stm32f3xx_hal_i2c.c ****     /* Set NBYTES to write and reload if hi2c->XferCount > MAX_NBYTE_SIZE and generate RESTART */
 650:Drivers/STM32F3xx_HAL_Driver/Src/stm32f3xx_hal_i2c.c ****     if(hi2c->XferCount > MAX_NBYTE_SIZE)
 435              		.loc 1 650 0
 436 0082 FB68     		ldr	r3, [r7, #12]
 437 0084 5B8D     		ldrh	r3, [r3, #42]	@ movhi
 438 0086 9BB2     		uxth	r3, r3
 439 0088 FF2B     		cmp	r3, #255
 440 008a 11D9     		bls	.L18
 651:Drivers/STM32F3xx_HAL_Driver/Src/stm32f3xx_hal_i2c.c ****     {
 652:Drivers/STM32F3xx_HAL_Driver/Src/stm32f3xx_hal_i2c.c ****       hi2c->XferSize = MAX_NBYTE_SIZE;
ARM GAS  /tmp/cccd70Af.s 			page 20


 441              		.loc 1 652 0
 442 008c FB68     		ldr	r3, [r7, #12]
 443 008e FF22     		movs	r2, #255
 444 0090 1A85     		strh	r2, [r3, #40]	@ movhi
 653:Drivers/STM32F3xx_HAL_Driver/Src/stm32f3xx_hal_i2c.c ****       I2C_TransferConfig(hi2c, DevAddress, hi2c->XferSize, I2C_RELOAD_MODE, I2C_GENERATE_START_WRIT
 445              		.loc 1 653 0
 446 0092 FB68     		ldr	r3, [r7, #12]
 447 0094 1B8D     		ldrh	r3, [r3, #40]
 448 0096 DBB2     		uxtb	r3, r3
 449 0098 7A89     		ldrh	r2, [r7, #10]
 450 009a 4FF40051 		mov	r1, #8192
 451 009e 0091     		str	r1, [sp]
 452 00a0 F868     		ldr	r0, [r7, #12]
 453 00a2 1146     		mov	r1, r2
 454 00a4 1A46     		mov	r2, r3
 455 00a6 4FF08073 		mov	r3, #16777216
 456 00aa FFF7FEFF 		bl	I2C_TransferConfig
 654:Drivers/STM32F3xx_HAL_Driver/Src/stm32f3xx_hal_i2c.c ****     }
 655:Drivers/STM32F3xx_HAL_Driver/Src/stm32f3xx_hal_i2c.c ****     else
 656:Drivers/STM32F3xx_HAL_Driver/Src/stm32f3xx_hal_i2c.c ****     {
 657:Drivers/STM32F3xx_HAL_Driver/Src/stm32f3xx_hal_i2c.c ****       hi2c->XferSize = hi2c->XferCount;
 658:Drivers/STM32F3xx_HAL_Driver/Src/stm32f3xx_hal_i2c.c ****       I2C_TransferConfig(hi2c, DevAddress, hi2c->XferSize, I2C_AUTOEND_MODE, I2C_GENERATE_START_WRI
 659:Drivers/STM32F3xx_HAL_Driver/Src/stm32f3xx_hal_i2c.c ****     }
 660:Drivers/STM32F3xx_HAL_Driver/Src/stm32f3xx_hal_i2c.c **** 
 661:Drivers/STM32F3xx_HAL_Driver/Src/stm32f3xx_hal_i2c.c ****     while(hi2c->XferCount > 0U)
 457              		.loc 1 661 0
 458 00ae 77E0     		b	.L20
 459              	.L18:
 657:Drivers/STM32F3xx_HAL_Driver/Src/stm32f3xx_hal_i2c.c ****       I2C_TransferConfig(hi2c, DevAddress, hi2c->XferSize, I2C_AUTOEND_MODE, I2C_GENERATE_START_WRI
 460              		.loc 1 657 0
 461 00b0 FB68     		ldr	r3, [r7, #12]
 462 00b2 5B8D     		ldrh	r3, [r3, #42]	@ movhi
 463 00b4 9AB2     		uxth	r2, r3
 464 00b6 FB68     		ldr	r3, [r7, #12]
 465 00b8 1A85     		strh	r2, [r3, #40]	@ movhi
 658:Drivers/STM32F3xx_HAL_Driver/Src/stm32f3xx_hal_i2c.c ****     }
 466              		.loc 1 658 0
 467 00ba FB68     		ldr	r3, [r7, #12]
 468 00bc 1B8D     		ldrh	r3, [r3, #40]
 469 00be DBB2     		uxtb	r3, r3
 470 00c0 7A89     		ldrh	r2, [r7, #10]
 471 00c2 4FF40051 		mov	r1, #8192
 472 00c6 0091     		str	r1, [sp]
 473 00c8 F868     		ldr	r0, [r7, #12]
 474 00ca 1146     		mov	r1, r2
 475 00cc 1A46     		mov	r2, r3
 476 00ce 4FF00073 		mov	r3, #33554432
 477 00d2 FFF7FEFF 		bl	I2C_TransferConfig
 478              		.loc 1 661 0
 479 00d6 63E0     		b	.L20
 480              	.L25:
 662:Drivers/STM32F3xx_HAL_Driver/Src/stm32f3xx_hal_i2c.c ****     {
 663:Drivers/STM32F3xx_HAL_Driver/Src/stm32f3xx_hal_i2c.c ****       /* Wait until TXIS flag is set */
 664:Drivers/STM32F3xx_HAL_Driver/Src/stm32f3xx_hal_i2c.c ****       if(I2C_WaitOnTXISFlagUntilTimeout(hi2c, Timeout, tickstart) != HAL_OK)
 481              		.loc 1 664 0
 482 00d8 F868     		ldr	r0, [r7, #12]
 483 00da 396A     		ldr	r1, [r7, #32]
ARM GAS  /tmp/cccd70Af.s 			page 21


 484 00dc 7A69     		ldr	r2, [r7, #20]
 485 00de FFF7FEFF 		bl	I2C_WaitOnTXISFlagUntilTimeout
 486 00e2 0346     		mov	r3, r0
 487 00e4 002B     		cmp	r3, #0
 488 00e6 07D0     		beq	.L21
 665:Drivers/STM32F3xx_HAL_Driver/Src/stm32f3xx_hal_i2c.c ****       {
 666:Drivers/STM32F3xx_HAL_Driver/Src/stm32f3xx_hal_i2c.c ****         if(hi2c->ErrorCode == HAL_I2C_ERROR_AF)
 489              		.loc 1 666 0
 490 00e8 FB68     		ldr	r3, [r7, #12]
 491 00ea 5B6C     		ldr	r3, [r3, #68]
 492 00ec 042B     		cmp	r3, #4
 493 00ee 01D1     		bne	.L22
 667:Drivers/STM32F3xx_HAL_Driver/Src/stm32f3xx_hal_i2c.c ****         {
 668:Drivers/STM32F3xx_HAL_Driver/Src/stm32f3xx_hal_i2c.c ****           return HAL_ERROR;
 494              		.loc 1 668 0
 495 00f0 0123     		movs	r3, #1
 496 00f2 85E0     		b	.L16
 497              	.L22:
 669:Drivers/STM32F3xx_HAL_Driver/Src/stm32f3xx_hal_i2c.c ****         }
 670:Drivers/STM32F3xx_HAL_Driver/Src/stm32f3xx_hal_i2c.c ****         else
 671:Drivers/STM32F3xx_HAL_Driver/Src/stm32f3xx_hal_i2c.c ****         {
 672:Drivers/STM32F3xx_HAL_Driver/Src/stm32f3xx_hal_i2c.c ****           return HAL_TIMEOUT;
 498              		.loc 1 672 0
 499 00f4 0323     		movs	r3, #3
 500 00f6 83E0     		b	.L16
 501              	.L21:
 673:Drivers/STM32F3xx_HAL_Driver/Src/stm32f3xx_hal_i2c.c ****         }
 674:Drivers/STM32F3xx_HAL_Driver/Src/stm32f3xx_hal_i2c.c ****       }
 675:Drivers/STM32F3xx_HAL_Driver/Src/stm32f3xx_hal_i2c.c ****       /* Write data to TXDR */
 676:Drivers/STM32F3xx_HAL_Driver/Src/stm32f3xx_hal_i2c.c ****       hi2c->Instance->TXDR = (*hi2c->pBuffPtr++);
 502              		.loc 1 676 0
 503 00f8 FB68     		ldr	r3, [r7, #12]
 504 00fa 1A68     		ldr	r2, [r3]
 505 00fc FB68     		ldr	r3, [r7, #12]
 506 00fe 5B6A     		ldr	r3, [r3, #36]
 507 0100 581C     		adds	r0, r3, #1
 508 0102 F968     		ldr	r1, [r7, #12]
 509 0104 4862     		str	r0, [r1, #36]
 510 0106 1B78     		ldrb	r3, [r3]	@ zero_extendqisi2
 511 0108 9362     		str	r3, [r2, #40]
 677:Drivers/STM32F3xx_HAL_Driver/Src/stm32f3xx_hal_i2c.c ****       hi2c->XferCount--;
 512              		.loc 1 677 0
 513 010a FB68     		ldr	r3, [r7, #12]
 514 010c 5B8D     		ldrh	r3, [r3, #42]	@ movhi
 515 010e 9BB2     		uxth	r3, r3
 516 0110 013B     		subs	r3, r3, #1
 517 0112 9AB2     		uxth	r2, r3
 518 0114 FB68     		ldr	r3, [r7, #12]
 519 0116 5A85     		strh	r2, [r3, #42]	@ movhi
 678:Drivers/STM32F3xx_HAL_Driver/Src/stm32f3xx_hal_i2c.c ****       hi2c->XferSize--;
 520              		.loc 1 678 0
 521 0118 FB68     		ldr	r3, [r7, #12]
 522 011a 1B8D     		ldrh	r3, [r3, #40]
 523 011c 013B     		subs	r3, r3, #1
 524 011e 9AB2     		uxth	r2, r3
 525 0120 FB68     		ldr	r3, [r7, #12]
 526 0122 1A85     		strh	r2, [r3, #40]	@ movhi
ARM GAS  /tmp/cccd70Af.s 			page 22


 679:Drivers/STM32F3xx_HAL_Driver/Src/stm32f3xx_hal_i2c.c **** 
 680:Drivers/STM32F3xx_HAL_Driver/Src/stm32f3xx_hal_i2c.c ****       if((hi2c->XferSize == 0U) && (hi2c->XferCount!=0U))
 527              		.loc 1 680 0
 528 0124 FB68     		ldr	r3, [r7, #12]
 529 0126 1B8D     		ldrh	r3, [r3, #40]
 530 0128 002B     		cmp	r3, #0
 531 012a 39D1     		bne	.L20
 532              		.loc 1 680 0 is_stmt 0 discriminator 1
 533 012c FB68     		ldr	r3, [r7, #12]
 534 012e 5B8D     		ldrh	r3, [r3, #42]	@ movhi
 535 0130 9BB2     		uxth	r3, r3
 536 0132 002B     		cmp	r3, #0
 537 0134 34D0     		beq	.L20
 681:Drivers/STM32F3xx_HAL_Driver/Src/stm32f3xx_hal_i2c.c ****       {
 682:Drivers/STM32F3xx_HAL_Driver/Src/stm32f3xx_hal_i2c.c ****         /* Wait until TCR flag is set */
 683:Drivers/STM32F3xx_HAL_Driver/Src/stm32f3xx_hal_i2c.c ****         if(I2C_WaitOnFlagUntilTimeout(hi2c, I2C_FLAG_TCR, RESET, Timeout, tickstart) != HAL_OK)
 538              		.loc 1 683 0 is_stmt 1
 539 0136 7B69     		ldr	r3, [r7, #20]
 540 0138 0093     		str	r3, [sp]
 541 013a F868     		ldr	r0, [r7, #12]
 542 013c 8021     		movs	r1, #128
 543 013e 0022     		movs	r2, #0
 544 0140 3B6A     		ldr	r3, [r7, #32]
 545 0142 FFF7FEFF 		bl	I2C_WaitOnFlagUntilTimeout
 546 0146 0346     		mov	r3, r0
 547 0148 002B     		cmp	r3, #0
 548 014a 01D0     		beq	.L23
 684:Drivers/STM32F3xx_HAL_Driver/Src/stm32f3xx_hal_i2c.c ****         {
 685:Drivers/STM32F3xx_HAL_Driver/Src/stm32f3xx_hal_i2c.c ****           return HAL_TIMEOUT;
 549              		.loc 1 685 0
 550 014c 0323     		movs	r3, #3
 551 014e 57E0     		b	.L16
 552              	.L23:
 686:Drivers/STM32F3xx_HAL_Driver/Src/stm32f3xx_hal_i2c.c ****         }
 687:Drivers/STM32F3xx_HAL_Driver/Src/stm32f3xx_hal_i2c.c ****         
 688:Drivers/STM32F3xx_HAL_Driver/Src/stm32f3xx_hal_i2c.c ****         if(hi2c->XferCount > MAX_NBYTE_SIZE)
 553              		.loc 1 688 0
 554 0150 FB68     		ldr	r3, [r7, #12]
 555 0152 5B8D     		ldrh	r3, [r3, #42]	@ movhi
 556 0154 9BB2     		uxth	r3, r3
 557 0156 FF2B     		cmp	r3, #255
 558 0158 10D9     		bls	.L24
 689:Drivers/STM32F3xx_HAL_Driver/Src/stm32f3xx_hal_i2c.c ****         {
 690:Drivers/STM32F3xx_HAL_Driver/Src/stm32f3xx_hal_i2c.c ****           hi2c->XferSize = MAX_NBYTE_SIZE;
 559              		.loc 1 690 0
 560 015a FB68     		ldr	r3, [r7, #12]
 561 015c FF22     		movs	r2, #255
 562 015e 1A85     		strh	r2, [r3, #40]	@ movhi
 691:Drivers/STM32F3xx_HAL_Driver/Src/stm32f3xx_hal_i2c.c ****           I2C_TransferConfig(hi2c, DevAddress, hi2c->XferSize, I2C_RELOAD_MODE, I2C_NO_STARTSTOP);
 563              		.loc 1 691 0
 564 0160 FB68     		ldr	r3, [r7, #12]
 565 0162 1B8D     		ldrh	r3, [r3, #40]
 566 0164 DBB2     		uxtb	r3, r3
 567 0166 7A89     		ldrh	r2, [r7, #10]
 568 0168 0021     		movs	r1, #0
 569 016a 0091     		str	r1, [sp]
 570 016c F868     		ldr	r0, [r7, #12]
ARM GAS  /tmp/cccd70Af.s 			page 23


 571 016e 1146     		mov	r1, r2
 572 0170 1A46     		mov	r2, r3
 573 0172 4FF08073 		mov	r3, #16777216
 574 0176 FFF7FEFF 		bl	I2C_TransferConfig
 575 017a 11E0     		b	.L20
 576              	.L24:
 692:Drivers/STM32F3xx_HAL_Driver/Src/stm32f3xx_hal_i2c.c ****         }
 693:Drivers/STM32F3xx_HAL_Driver/Src/stm32f3xx_hal_i2c.c ****         else
 694:Drivers/STM32F3xx_HAL_Driver/Src/stm32f3xx_hal_i2c.c ****         {
 695:Drivers/STM32F3xx_HAL_Driver/Src/stm32f3xx_hal_i2c.c ****           hi2c->XferSize = hi2c->XferCount;
 577              		.loc 1 695 0
 578 017c FB68     		ldr	r3, [r7, #12]
 579 017e 5B8D     		ldrh	r3, [r3, #42]	@ movhi
 580 0180 9AB2     		uxth	r2, r3
 581 0182 FB68     		ldr	r3, [r7, #12]
 582 0184 1A85     		strh	r2, [r3, #40]	@ movhi
 696:Drivers/STM32F3xx_HAL_Driver/Src/stm32f3xx_hal_i2c.c ****           I2C_TransferConfig(hi2c, DevAddress, hi2c->XferSize, I2C_AUTOEND_MODE, I2C_NO_STARTSTOP);
 583              		.loc 1 696 0
 584 0186 FB68     		ldr	r3, [r7, #12]
 585 0188 1B8D     		ldrh	r3, [r3, #40]
 586 018a DBB2     		uxtb	r3, r3
 587 018c 7A89     		ldrh	r2, [r7, #10]
 588 018e 0021     		movs	r1, #0
 589 0190 0091     		str	r1, [sp]
 590 0192 F868     		ldr	r0, [r7, #12]
 591 0194 1146     		mov	r1, r2
 592 0196 1A46     		mov	r2, r3
 593 0198 4FF00073 		mov	r3, #33554432
 594 019c FFF7FEFF 		bl	I2C_TransferConfig
 595              	.L20:
 661:Drivers/STM32F3xx_HAL_Driver/Src/stm32f3xx_hal_i2c.c ****     {
 596              		.loc 1 661 0 discriminator 1
 597 01a0 FB68     		ldr	r3, [r7, #12]
 598 01a2 5B8D     		ldrh	r3, [r3, #42]	@ movhi
 599 01a4 9BB2     		uxth	r3, r3
 600 01a6 002B     		cmp	r3, #0
 601 01a8 96D1     		bne	.L25
 697:Drivers/STM32F3xx_HAL_Driver/Src/stm32f3xx_hal_i2c.c ****         }
 698:Drivers/STM32F3xx_HAL_Driver/Src/stm32f3xx_hal_i2c.c ****       }
 699:Drivers/STM32F3xx_HAL_Driver/Src/stm32f3xx_hal_i2c.c ****     }
 700:Drivers/STM32F3xx_HAL_Driver/Src/stm32f3xx_hal_i2c.c ****   
 701:Drivers/STM32F3xx_HAL_Driver/Src/stm32f3xx_hal_i2c.c ****     /* No need to Check TC flag, with AUTOEND mode the stop is automatically generated */
 702:Drivers/STM32F3xx_HAL_Driver/Src/stm32f3xx_hal_i2c.c ****     /* Wait until STOPF flag is set */
 703:Drivers/STM32F3xx_HAL_Driver/Src/stm32f3xx_hal_i2c.c ****     if(I2C_WaitOnSTOPFlagUntilTimeout(hi2c, Timeout, tickstart) != HAL_OK)
 602              		.loc 1 703 0
 603 01aa F868     		ldr	r0, [r7, #12]
 604 01ac 396A     		ldr	r1, [r7, #32]
 605 01ae 7A69     		ldr	r2, [r7, #20]
 606 01b0 FFF7FEFF 		bl	I2C_WaitOnSTOPFlagUntilTimeout
 607 01b4 0346     		mov	r3, r0
 608 01b6 002B     		cmp	r3, #0
 609 01b8 07D0     		beq	.L26
 704:Drivers/STM32F3xx_HAL_Driver/Src/stm32f3xx_hal_i2c.c ****     {
 705:Drivers/STM32F3xx_HAL_Driver/Src/stm32f3xx_hal_i2c.c ****       if(hi2c->ErrorCode == HAL_I2C_ERROR_AF)
 610              		.loc 1 705 0
 611 01ba FB68     		ldr	r3, [r7, #12]
 612 01bc 5B6C     		ldr	r3, [r3, #68]
ARM GAS  /tmp/cccd70Af.s 			page 24


 613 01be 042B     		cmp	r3, #4
 614 01c0 01D1     		bne	.L27
 706:Drivers/STM32F3xx_HAL_Driver/Src/stm32f3xx_hal_i2c.c ****       {
 707:Drivers/STM32F3xx_HAL_Driver/Src/stm32f3xx_hal_i2c.c ****         return HAL_ERROR;
 615              		.loc 1 707 0
 616 01c2 0123     		movs	r3, #1
 617 01c4 1CE0     		b	.L16
 618              	.L27:
 708:Drivers/STM32F3xx_HAL_Driver/Src/stm32f3xx_hal_i2c.c ****       }
 709:Drivers/STM32F3xx_HAL_Driver/Src/stm32f3xx_hal_i2c.c ****       else
 710:Drivers/STM32F3xx_HAL_Driver/Src/stm32f3xx_hal_i2c.c ****       {
 711:Drivers/STM32F3xx_HAL_Driver/Src/stm32f3xx_hal_i2c.c ****         return HAL_TIMEOUT;
 619              		.loc 1 711 0
 620 01c6 0323     		movs	r3, #3
 621 01c8 1AE0     		b	.L16
 622              	.L26:
 712:Drivers/STM32F3xx_HAL_Driver/Src/stm32f3xx_hal_i2c.c ****       }
 713:Drivers/STM32F3xx_HAL_Driver/Src/stm32f3xx_hal_i2c.c ****     }
 714:Drivers/STM32F3xx_HAL_Driver/Src/stm32f3xx_hal_i2c.c **** 
 715:Drivers/STM32F3xx_HAL_Driver/Src/stm32f3xx_hal_i2c.c ****     /* Clear STOP Flag */
 716:Drivers/STM32F3xx_HAL_Driver/Src/stm32f3xx_hal_i2c.c ****     __HAL_I2C_CLEAR_FLAG(hi2c, I2C_FLAG_STOPF);
 623              		.loc 1 716 0
 624 01ca FB68     		ldr	r3, [r7, #12]
 625 01cc 1B68     		ldr	r3, [r3]
 626 01ce 2022     		movs	r2, #32
 627 01d0 DA61     		str	r2, [r3, #28]
 717:Drivers/STM32F3xx_HAL_Driver/Src/stm32f3xx_hal_i2c.c **** 
 718:Drivers/STM32F3xx_HAL_Driver/Src/stm32f3xx_hal_i2c.c ****     /* Clear Configuration Register 2 */
 719:Drivers/STM32F3xx_HAL_Driver/Src/stm32f3xx_hal_i2c.c ****     I2C_RESET_CR2(hi2c);
 628              		.loc 1 719 0
 629 01d2 FB68     		ldr	r3, [r7, #12]
 630 01d4 1A68     		ldr	r2, [r3]
 631 01d6 FB68     		ldr	r3, [r7, #12]
 632 01d8 1B68     		ldr	r3, [r3]
 633 01da 5968     		ldr	r1, [r3, #4]
 634 01dc 0A4B     		ldr	r3, .L28
 635 01de 0B40     		ands	r3, r3, r1
 636 01e0 5360     		str	r3, [r2, #4]
 720:Drivers/STM32F3xx_HAL_Driver/Src/stm32f3xx_hal_i2c.c **** 
 721:Drivers/STM32F3xx_HAL_Driver/Src/stm32f3xx_hal_i2c.c ****     hi2c->State = HAL_I2C_STATE_READY;
 637              		.loc 1 721 0
 638 01e2 FB68     		ldr	r3, [r7, #12]
 639 01e4 2022     		movs	r2, #32
 640 01e6 83F84120 		strb	r2, [r3, #65]
 722:Drivers/STM32F3xx_HAL_Driver/Src/stm32f3xx_hal_i2c.c ****     hi2c->Mode = HAL_I2C_MODE_NONE;
 641              		.loc 1 722 0
 642 01ea FB68     		ldr	r3, [r7, #12]
 643 01ec 0022     		movs	r2, #0
 644 01ee 83F84220 		strb	r2, [r3, #66]
 723:Drivers/STM32F3xx_HAL_Driver/Src/stm32f3xx_hal_i2c.c ****     
 724:Drivers/STM32F3xx_HAL_Driver/Src/stm32f3xx_hal_i2c.c ****     /* Process Unlocked */
 725:Drivers/STM32F3xx_HAL_Driver/Src/stm32f3xx_hal_i2c.c ****     __HAL_UNLOCK(hi2c);
 645              		.loc 1 725 0
 646 01f2 FB68     		ldr	r3, [r7, #12]
 647 01f4 0022     		movs	r2, #0
 648 01f6 83F84020 		strb	r2, [r3, #64]
 726:Drivers/STM32F3xx_HAL_Driver/Src/stm32f3xx_hal_i2c.c **** 
ARM GAS  /tmp/cccd70Af.s 			page 25


 727:Drivers/STM32F3xx_HAL_Driver/Src/stm32f3xx_hal_i2c.c ****     return HAL_OK;
 649              		.loc 1 727 0
 650 01fa 0023     		movs	r3, #0
 651 01fc 00E0     		b	.L16
 652              	.L14:
 728:Drivers/STM32F3xx_HAL_Driver/Src/stm32f3xx_hal_i2c.c ****   }
 729:Drivers/STM32F3xx_HAL_Driver/Src/stm32f3xx_hal_i2c.c ****   else
 730:Drivers/STM32F3xx_HAL_Driver/Src/stm32f3xx_hal_i2c.c ****   {
 731:Drivers/STM32F3xx_HAL_Driver/Src/stm32f3xx_hal_i2c.c ****     return HAL_BUSY;
 653              		.loc 1 731 0
 654 01fe 0223     		movs	r3, #2
 655              	.L16:
 732:Drivers/STM32F3xx_HAL_Driver/Src/stm32f3xx_hal_i2c.c ****   }
 733:Drivers/STM32F3xx_HAL_Driver/Src/stm32f3xx_hal_i2c.c **** }
 656              		.loc 1 733 0
 657 0200 1846     		mov	r0, r3
 658 0202 1837     		adds	r7, r7, #24
 659 0204 BD46     		mov	sp, r7
 660              		@ sp needed
 661 0206 80BD     		pop	{r7, pc}
 662              	.L29:
 663              		.align	2
 664              	.L28:
 665 0208 00E800FE 		.word	-33495040
 666              		.cfi_endproc
 667              	.LFE129:
 669              		.section	.text.HAL_I2C_Master_Receive,"ax",%progbits
 670              		.align	2
 671              		.global	HAL_I2C_Master_Receive
 672              		.thumb
 673              		.thumb_func
 675              	HAL_I2C_Master_Receive:
 676              	.LFB130:
 734:Drivers/STM32F3xx_HAL_Driver/Src/stm32f3xx_hal_i2c.c **** 
 735:Drivers/STM32F3xx_HAL_Driver/Src/stm32f3xx_hal_i2c.c **** /**
 736:Drivers/STM32F3xx_HAL_Driver/Src/stm32f3xx_hal_i2c.c ****   * @brief  Receives in master mode an amount of data in blocking mode. 
 737:Drivers/STM32F3xx_HAL_Driver/Src/stm32f3xx_hal_i2c.c ****   * @param  hi2c Pointer to a I2C_HandleTypeDef structure that contains
 738:Drivers/STM32F3xx_HAL_Driver/Src/stm32f3xx_hal_i2c.c ****   *                the configuration information for the specified I2C.
 739:Drivers/STM32F3xx_HAL_Driver/Src/stm32f3xx_hal_i2c.c ****   * @param  DevAddress Target device address
 740:Drivers/STM32F3xx_HAL_Driver/Src/stm32f3xx_hal_i2c.c ****   * @param  pData Pointer to data buffer
 741:Drivers/STM32F3xx_HAL_Driver/Src/stm32f3xx_hal_i2c.c ****   * @param  Size Amount of data to be sent
 742:Drivers/STM32F3xx_HAL_Driver/Src/stm32f3xx_hal_i2c.c ****   * @param  Timeout Timeout duration
 743:Drivers/STM32F3xx_HAL_Driver/Src/stm32f3xx_hal_i2c.c ****   * @retval HAL status
 744:Drivers/STM32F3xx_HAL_Driver/Src/stm32f3xx_hal_i2c.c ****   */
 745:Drivers/STM32F3xx_HAL_Driver/Src/stm32f3xx_hal_i2c.c **** HAL_StatusTypeDef HAL_I2C_Master_Receive(I2C_HandleTypeDef *hi2c, uint16_t DevAddress, uint8_t *pDa
 746:Drivers/STM32F3xx_HAL_Driver/Src/stm32f3xx_hal_i2c.c **** {
 677              		.loc 1 746 0
 678              		.cfi_startproc
 679              		@ args = 4, pretend = 0, frame = 24
 680              		@ frame_needed = 1, uses_anonymous_args = 0
 681 0000 80B5     		push	{r7, lr}
 682              	.LCFI15:
 683              		.cfi_def_cfa_offset 8
 684              		.cfi_offset 7, -8
 685              		.cfi_offset 14, -4
 686 0002 88B0     		sub	sp, sp, #32
 687              	.LCFI16:
ARM GAS  /tmp/cccd70Af.s 			page 26


 688              		.cfi_def_cfa_offset 40
 689 0004 02AF     		add	r7, sp, #8
 690              	.LCFI17:
 691              		.cfi_def_cfa 7, 32
 692 0006 F860     		str	r0, [r7, #12]
 693 0008 7A60     		str	r2, [r7, #4]
 694 000a 0A46     		mov	r2, r1	@ movhi
 695 000c 7A81     		strh	r2, [r7, #10]	@ movhi
 696 000e 3B81     		strh	r3, [r7, #8]	@ movhi
 747:Drivers/STM32F3xx_HAL_Driver/Src/stm32f3xx_hal_i2c.c ****   uint32_t tickstart = 0U;
 697              		.loc 1 747 0
 698 0010 0023     		movs	r3, #0
 699 0012 7B61     		str	r3, [r7, #20]
 748:Drivers/STM32F3xx_HAL_Driver/Src/stm32f3xx_hal_i2c.c **** 
 749:Drivers/STM32F3xx_HAL_Driver/Src/stm32f3xx_hal_i2c.c ****   if(hi2c->State == HAL_I2C_STATE_READY)
 700              		.loc 1 749 0
 701 0014 FB68     		ldr	r3, [r7, #12]
 702 0016 93F84130 		ldrb	r3, [r3, #65]
 703 001a DBB2     		uxtb	r3, r3
 704 001c 202B     		cmp	r3, #32
 705 001e 40F0EF80 		bne	.L31
 750:Drivers/STM32F3xx_HAL_Driver/Src/stm32f3xx_hal_i2c.c ****   {    
 751:Drivers/STM32F3xx_HAL_Driver/Src/stm32f3xx_hal_i2c.c ****     /* Process Locked */
 752:Drivers/STM32F3xx_HAL_Driver/Src/stm32f3xx_hal_i2c.c ****     __HAL_LOCK(hi2c);
 706              		.loc 1 752 0
 707 0022 FB68     		ldr	r3, [r7, #12]
 708 0024 93F84030 		ldrb	r3, [r3, #64]	@ zero_extendqisi2
 709 0028 012B     		cmp	r3, #1
 710 002a 01D1     		bne	.L32
 711              		.loc 1 752 0 is_stmt 0 discriminator 1
 712 002c 0223     		movs	r3, #2
 713 002e E8E0     		b	.L33
 714              	.L32:
 715              		.loc 1 752 0 discriminator 2
 716 0030 FB68     		ldr	r3, [r7, #12]
 717 0032 0122     		movs	r2, #1
 718 0034 83F84020 		strb	r2, [r3, #64]
 753:Drivers/STM32F3xx_HAL_Driver/Src/stm32f3xx_hal_i2c.c ****     
 754:Drivers/STM32F3xx_HAL_Driver/Src/stm32f3xx_hal_i2c.c ****     /* Init tickstart for timeout management*/
 755:Drivers/STM32F3xx_HAL_Driver/Src/stm32f3xx_hal_i2c.c ****     tickstart = HAL_GetTick();
 719              		.loc 1 755 0 is_stmt 1 discriminator 2
 720 0038 FFF7FEFF 		bl	HAL_GetTick
 721 003c 7861     		str	r0, [r7, #20]
 756:Drivers/STM32F3xx_HAL_Driver/Src/stm32f3xx_hal_i2c.c **** 
 757:Drivers/STM32F3xx_HAL_Driver/Src/stm32f3xx_hal_i2c.c ****     if(I2C_WaitOnFlagUntilTimeout(hi2c, I2C_FLAG_BUSY, SET, I2C_TIMEOUT_BUSY, tickstart) != HAL_OK)
 722              		.loc 1 757 0 discriminator 2
 723 003e 7B69     		ldr	r3, [r7, #20]
 724 0040 0093     		str	r3, [sp]
 725 0042 F868     		ldr	r0, [r7, #12]
 726 0044 4FF40041 		mov	r1, #32768
 727 0048 0122     		movs	r2, #1
 728 004a 1923     		movs	r3, #25
 729 004c FFF7FEFF 		bl	I2C_WaitOnFlagUntilTimeout
 730 0050 0346     		mov	r3, r0
 731 0052 002B     		cmp	r3, #0
 732 0054 01D0     		beq	.L34
 758:Drivers/STM32F3xx_HAL_Driver/Src/stm32f3xx_hal_i2c.c ****     {
ARM GAS  /tmp/cccd70Af.s 			page 27


 759:Drivers/STM32F3xx_HAL_Driver/Src/stm32f3xx_hal_i2c.c ****       return HAL_TIMEOUT;
 733              		.loc 1 759 0
 734 0056 0323     		movs	r3, #3
 735 0058 D3E0     		b	.L33
 736              	.L34:
 760:Drivers/STM32F3xx_HAL_Driver/Src/stm32f3xx_hal_i2c.c ****     }
 761:Drivers/STM32F3xx_HAL_Driver/Src/stm32f3xx_hal_i2c.c **** 
 762:Drivers/STM32F3xx_HAL_Driver/Src/stm32f3xx_hal_i2c.c ****     hi2c->State = HAL_I2C_STATE_BUSY_RX;
 737              		.loc 1 762 0
 738 005a FB68     		ldr	r3, [r7, #12]
 739 005c 2222     		movs	r2, #34
 740 005e 83F84120 		strb	r2, [r3, #65]
 763:Drivers/STM32F3xx_HAL_Driver/Src/stm32f3xx_hal_i2c.c ****     hi2c->Mode = HAL_I2C_MODE_MASTER;
 741              		.loc 1 763 0
 742 0062 FB68     		ldr	r3, [r7, #12]
 743 0064 1022     		movs	r2, #16
 744 0066 83F84220 		strb	r2, [r3, #66]
 764:Drivers/STM32F3xx_HAL_Driver/Src/stm32f3xx_hal_i2c.c ****     hi2c->ErrorCode   = HAL_I2C_ERROR_NONE;
 745              		.loc 1 764 0
 746 006a FB68     		ldr	r3, [r7, #12]
 747 006c 0022     		movs	r2, #0
 748 006e 5A64     		str	r2, [r3, #68]
 765:Drivers/STM32F3xx_HAL_Driver/Src/stm32f3xx_hal_i2c.c ****     
 766:Drivers/STM32F3xx_HAL_Driver/Src/stm32f3xx_hal_i2c.c ****     /* Prepare transfer parameters */
 767:Drivers/STM32F3xx_HAL_Driver/Src/stm32f3xx_hal_i2c.c ****     hi2c->pBuffPtr  = pData;
 749              		.loc 1 767 0
 750 0070 FB68     		ldr	r3, [r7, #12]
 751 0072 7A68     		ldr	r2, [r7, #4]
 752 0074 5A62     		str	r2, [r3, #36]
 768:Drivers/STM32F3xx_HAL_Driver/Src/stm32f3xx_hal_i2c.c ****     hi2c->XferCount = Size;
 753              		.loc 1 768 0
 754 0076 FB68     		ldr	r3, [r7, #12]
 755 0078 3A89     		ldrh	r2, [r7, #8]	@ movhi
 756 007a 5A85     		strh	r2, [r3, #42]	@ movhi
 769:Drivers/STM32F3xx_HAL_Driver/Src/stm32f3xx_hal_i2c.c ****     hi2c->XferISR   = NULL;
 757              		.loc 1 769 0
 758 007c FB68     		ldr	r3, [r7, #12]
 759 007e 0022     		movs	r2, #0
 760 0080 5A63     		str	r2, [r3, #52]
 770:Drivers/STM32F3xx_HAL_Driver/Src/stm32f3xx_hal_i2c.c ****       
 771:Drivers/STM32F3xx_HAL_Driver/Src/stm32f3xx_hal_i2c.c ****     /* Send Slave Address */
 772:Drivers/STM32F3xx_HAL_Driver/Src/stm32f3xx_hal_i2c.c ****     /* Set NBYTES to write and reload if hi2c->XferCount > MAX_NBYTE_SIZE and generate RESTART */
 773:Drivers/STM32F3xx_HAL_Driver/Src/stm32f3xx_hal_i2c.c ****     if(hi2c->XferCount > MAX_NBYTE_SIZE)
 761              		.loc 1 773 0
 762 0082 FB68     		ldr	r3, [r7, #12]
 763 0084 5B8D     		ldrh	r3, [r3, #42]	@ movhi
 764 0086 9BB2     		uxth	r3, r3
 765 0088 FF2B     		cmp	r3, #255
 766 008a 11D9     		bls	.L35
 774:Drivers/STM32F3xx_HAL_Driver/Src/stm32f3xx_hal_i2c.c ****     {
 775:Drivers/STM32F3xx_HAL_Driver/Src/stm32f3xx_hal_i2c.c ****       hi2c->XferSize = MAX_NBYTE_SIZE;
 767              		.loc 1 775 0
 768 008c FB68     		ldr	r3, [r7, #12]
 769 008e FF22     		movs	r2, #255
 770 0090 1A85     		strh	r2, [r3, #40]	@ movhi
 776:Drivers/STM32F3xx_HAL_Driver/Src/stm32f3xx_hal_i2c.c ****       I2C_TransferConfig(hi2c, DevAddress, hi2c->XferSize, I2C_RELOAD_MODE, I2C_GENERATE_START_READ
 771              		.loc 1 776 0
ARM GAS  /tmp/cccd70Af.s 			page 28


 772 0092 FB68     		ldr	r3, [r7, #12]
 773 0094 1B8D     		ldrh	r3, [r3, #40]
 774 0096 DBB2     		uxtb	r3, r3
 775 0098 7A89     		ldrh	r2, [r7, #10]
 776 009a 4FF41051 		mov	r1, #9216
 777 009e 0091     		str	r1, [sp]
 778 00a0 F868     		ldr	r0, [r7, #12]
 779 00a2 1146     		mov	r1, r2
 780 00a4 1A46     		mov	r2, r3
 781 00a6 4FF08073 		mov	r3, #16777216
 782 00aa FFF7FEFF 		bl	I2C_TransferConfig
 777:Drivers/STM32F3xx_HAL_Driver/Src/stm32f3xx_hal_i2c.c ****     }
 778:Drivers/STM32F3xx_HAL_Driver/Src/stm32f3xx_hal_i2c.c ****     else
 779:Drivers/STM32F3xx_HAL_Driver/Src/stm32f3xx_hal_i2c.c ****     {
 780:Drivers/STM32F3xx_HAL_Driver/Src/stm32f3xx_hal_i2c.c ****       hi2c->XferSize = hi2c->XferCount;
 781:Drivers/STM32F3xx_HAL_Driver/Src/stm32f3xx_hal_i2c.c ****       I2C_TransferConfig(hi2c, DevAddress, hi2c->XferSize, I2C_AUTOEND_MODE, I2C_GENERATE_START_REA
 782:Drivers/STM32F3xx_HAL_Driver/Src/stm32f3xx_hal_i2c.c ****     }
 783:Drivers/STM32F3xx_HAL_Driver/Src/stm32f3xx_hal_i2c.c **** 
 784:Drivers/STM32F3xx_HAL_Driver/Src/stm32f3xx_hal_i2c.c ****     while(hi2c->XferCount > 0U)
 783              		.loc 1 784 0
 784 00ae 78E0     		b	.L37
 785              	.L35:
 780:Drivers/STM32F3xx_HAL_Driver/Src/stm32f3xx_hal_i2c.c ****       I2C_TransferConfig(hi2c, DevAddress, hi2c->XferSize, I2C_AUTOEND_MODE, I2C_GENERATE_START_REA
 786              		.loc 1 780 0
 787 00b0 FB68     		ldr	r3, [r7, #12]
 788 00b2 5B8D     		ldrh	r3, [r3, #42]	@ movhi
 789 00b4 9AB2     		uxth	r2, r3
 790 00b6 FB68     		ldr	r3, [r7, #12]
 791 00b8 1A85     		strh	r2, [r3, #40]	@ movhi
 781:Drivers/STM32F3xx_HAL_Driver/Src/stm32f3xx_hal_i2c.c ****     }
 792              		.loc 1 781 0
 793 00ba FB68     		ldr	r3, [r7, #12]
 794 00bc 1B8D     		ldrh	r3, [r3, #40]
 795 00be DBB2     		uxtb	r3, r3
 796 00c0 7A89     		ldrh	r2, [r7, #10]
 797 00c2 4FF41051 		mov	r1, #9216
 798 00c6 0091     		str	r1, [sp]
 799 00c8 F868     		ldr	r0, [r7, #12]
 800 00ca 1146     		mov	r1, r2
 801 00cc 1A46     		mov	r2, r3
 802 00ce 4FF00073 		mov	r3, #33554432
 803 00d2 FFF7FEFF 		bl	I2C_TransferConfig
 804              		.loc 1 784 0
 805 00d6 64E0     		b	.L37
 806              	.L42:
 785:Drivers/STM32F3xx_HAL_Driver/Src/stm32f3xx_hal_i2c.c ****     {
 786:Drivers/STM32F3xx_HAL_Driver/Src/stm32f3xx_hal_i2c.c ****       /* Wait until RXNE flag is set */
 787:Drivers/STM32F3xx_HAL_Driver/Src/stm32f3xx_hal_i2c.c ****       if(I2C_WaitOnRXNEFlagUntilTimeout(hi2c, Timeout, tickstart) != HAL_OK)
 807              		.loc 1 787 0
 808 00d8 F868     		ldr	r0, [r7, #12]
 809 00da 396A     		ldr	r1, [r7, #32]
 810 00dc 7A69     		ldr	r2, [r7, #20]
 811 00de FFF7FEFF 		bl	I2C_WaitOnRXNEFlagUntilTimeout
 812 00e2 0346     		mov	r3, r0
 813 00e4 002B     		cmp	r3, #0
 814 00e6 07D0     		beq	.L38
 788:Drivers/STM32F3xx_HAL_Driver/Src/stm32f3xx_hal_i2c.c ****       {
ARM GAS  /tmp/cccd70Af.s 			page 29


 789:Drivers/STM32F3xx_HAL_Driver/Src/stm32f3xx_hal_i2c.c ****         if(hi2c->ErrorCode == HAL_I2C_ERROR_AF)
 815              		.loc 1 789 0
 816 00e8 FB68     		ldr	r3, [r7, #12]
 817 00ea 5B6C     		ldr	r3, [r3, #68]
 818 00ec 042B     		cmp	r3, #4
 819 00ee 01D1     		bne	.L39
 790:Drivers/STM32F3xx_HAL_Driver/Src/stm32f3xx_hal_i2c.c ****         {
 791:Drivers/STM32F3xx_HAL_Driver/Src/stm32f3xx_hal_i2c.c ****           return HAL_ERROR;
 820              		.loc 1 791 0
 821 00f0 0123     		movs	r3, #1
 822 00f2 86E0     		b	.L33
 823              	.L39:
 792:Drivers/STM32F3xx_HAL_Driver/Src/stm32f3xx_hal_i2c.c ****         }
 793:Drivers/STM32F3xx_HAL_Driver/Src/stm32f3xx_hal_i2c.c ****         else
 794:Drivers/STM32F3xx_HAL_Driver/Src/stm32f3xx_hal_i2c.c ****         {
 795:Drivers/STM32F3xx_HAL_Driver/Src/stm32f3xx_hal_i2c.c ****           return HAL_TIMEOUT;
 824              		.loc 1 795 0
 825 00f4 0323     		movs	r3, #3
 826 00f6 84E0     		b	.L33
 827              	.L38:
 796:Drivers/STM32F3xx_HAL_Driver/Src/stm32f3xx_hal_i2c.c ****         }
 797:Drivers/STM32F3xx_HAL_Driver/Src/stm32f3xx_hal_i2c.c ****       }
 798:Drivers/STM32F3xx_HAL_Driver/Src/stm32f3xx_hal_i2c.c **** 
 799:Drivers/STM32F3xx_HAL_Driver/Src/stm32f3xx_hal_i2c.c ****       /* Read data from RXDR */
 800:Drivers/STM32F3xx_HAL_Driver/Src/stm32f3xx_hal_i2c.c ****       (*hi2c->pBuffPtr++) = hi2c->Instance->RXDR;
 828              		.loc 1 800 0
 829 00f8 FB68     		ldr	r3, [r7, #12]
 830 00fa 5B6A     		ldr	r3, [r3, #36]
 831 00fc 591C     		adds	r1, r3, #1
 832 00fe FA68     		ldr	r2, [r7, #12]
 833 0100 5162     		str	r1, [r2, #36]
 834 0102 FA68     		ldr	r2, [r7, #12]
 835 0104 1268     		ldr	r2, [r2]
 836 0106 526A     		ldr	r2, [r2, #36]
 837 0108 D2B2     		uxtb	r2, r2
 838 010a 1A70     		strb	r2, [r3]
 801:Drivers/STM32F3xx_HAL_Driver/Src/stm32f3xx_hal_i2c.c ****       hi2c->XferSize--;
 839              		.loc 1 801 0
 840 010c FB68     		ldr	r3, [r7, #12]
 841 010e 1B8D     		ldrh	r3, [r3, #40]
 842 0110 013B     		subs	r3, r3, #1
 843 0112 9AB2     		uxth	r2, r3
 844 0114 FB68     		ldr	r3, [r7, #12]
 845 0116 1A85     		strh	r2, [r3, #40]	@ movhi
 802:Drivers/STM32F3xx_HAL_Driver/Src/stm32f3xx_hal_i2c.c ****       hi2c->XferCount--;
 846              		.loc 1 802 0
 847 0118 FB68     		ldr	r3, [r7, #12]
 848 011a 5B8D     		ldrh	r3, [r3, #42]	@ movhi
 849 011c 9BB2     		uxth	r3, r3
 850 011e 013B     		subs	r3, r3, #1
 851 0120 9AB2     		uxth	r2, r3
 852 0122 FB68     		ldr	r3, [r7, #12]
 853 0124 5A85     		strh	r2, [r3, #42]	@ movhi
 803:Drivers/STM32F3xx_HAL_Driver/Src/stm32f3xx_hal_i2c.c **** 
 804:Drivers/STM32F3xx_HAL_Driver/Src/stm32f3xx_hal_i2c.c ****       if((hi2c->XferSize == 0U) && (hi2c->XferCount != 0U))
 854              		.loc 1 804 0
 855 0126 FB68     		ldr	r3, [r7, #12]
ARM GAS  /tmp/cccd70Af.s 			page 30


 856 0128 1B8D     		ldrh	r3, [r3, #40]
 857 012a 002B     		cmp	r3, #0
 858 012c 39D1     		bne	.L37
 859              		.loc 1 804 0 is_stmt 0 discriminator 1
 860 012e FB68     		ldr	r3, [r7, #12]
 861 0130 5B8D     		ldrh	r3, [r3, #42]	@ movhi
 862 0132 9BB2     		uxth	r3, r3
 863 0134 002B     		cmp	r3, #0
 864 0136 34D0     		beq	.L37
 805:Drivers/STM32F3xx_HAL_Driver/Src/stm32f3xx_hal_i2c.c ****       {
 806:Drivers/STM32F3xx_HAL_Driver/Src/stm32f3xx_hal_i2c.c ****         /* Wait until TCR flag is set */
 807:Drivers/STM32F3xx_HAL_Driver/Src/stm32f3xx_hal_i2c.c ****         if(I2C_WaitOnFlagUntilTimeout(hi2c, I2C_FLAG_TCR, RESET, Timeout, tickstart) != HAL_OK)
 865              		.loc 1 807 0 is_stmt 1
 866 0138 7B69     		ldr	r3, [r7, #20]
 867 013a 0093     		str	r3, [sp]
 868 013c F868     		ldr	r0, [r7, #12]
 869 013e 8021     		movs	r1, #128
 870 0140 0022     		movs	r2, #0
 871 0142 3B6A     		ldr	r3, [r7, #32]
 872 0144 FFF7FEFF 		bl	I2C_WaitOnFlagUntilTimeout
 873 0148 0346     		mov	r3, r0
 874 014a 002B     		cmp	r3, #0
 875 014c 01D0     		beq	.L40
 808:Drivers/STM32F3xx_HAL_Driver/Src/stm32f3xx_hal_i2c.c ****         {
 809:Drivers/STM32F3xx_HAL_Driver/Src/stm32f3xx_hal_i2c.c ****           return HAL_TIMEOUT;
 876              		.loc 1 809 0
 877 014e 0323     		movs	r3, #3
 878 0150 57E0     		b	.L33
 879              	.L40:
 810:Drivers/STM32F3xx_HAL_Driver/Src/stm32f3xx_hal_i2c.c ****         }
 811:Drivers/STM32F3xx_HAL_Driver/Src/stm32f3xx_hal_i2c.c ****         
 812:Drivers/STM32F3xx_HAL_Driver/Src/stm32f3xx_hal_i2c.c ****         if(hi2c->XferCount > MAX_NBYTE_SIZE)
 880              		.loc 1 812 0
 881 0152 FB68     		ldr	r3, [r7, #12]
 882 0154 5B8D     		ldrh	r3, [r3, #42]	@ movhi
 883 0156 9BB2     		uxth	r3, r3
 884 0158 FF2B     		cmp	r3, #255
 885 015a 10D9     		bls	.L41
 813:Drivers/STM32F3xx_HAL_Driver/Src/stm32f3xx_hal_i2c.c ****         {
 814:Drivers/STM32F3xx_HAL_Driver/Src/stm32f3xx_hal_i2c.c ****           hi2c->XferSize = MAX_NBYTE_SIZE;
 886              		.loc 1 814 0
 887 015c FB68     		ldr	r3, [r7, #12]
 888 015e FF22     		movs	r2, #255
 889 0160 1A85     		strh	r2, [r3, #40]	@ movhi
 815:Drivers/STM32F3xx_HAL_Driver/Src/stm32f3xx_hal_i2c.c ****           I2C_TransferConfig(hi2c, DevAddress, hi2c->XferSize, I2C_RELOAD_MODE, I2C_NO_STARTSTOP);
 890              		.loc 1 815 0
 891 0162 FB68     		ldr	r3, [r7, #12]
 892 0164 1B8D     		ldrh	r3, [r3, #40]
 893 0166 DBB2     		uxtb	r3, r3
 894 0168 7A89     		ldrh	r2, [r7, #10]
 895 016a 0021     		movs	r1, #0
 896 016c 0091     		str	r1, [sp]
 897 016e F868     		ldr	r0, [r7, #12]
 898 0170 1146     		mov	r1, r2
 899 0172 1A46     		mov	r2, r3
 900 0174 4FF08073 		mov	r3, #16777216
 901 0178 FFF7FEFF 		bl	I2C_TransferConfig
ARM GAS  /tmp/cccd70Af.s 			page 31


 902 017c 11E0     		b	.L37
 903              	.L41:
 816:Drivers/STM32F3xx_HAL_Driver/Src/stm32f3xx_hal_i2c.c ****         }
 817:Drivers/STM32F3xx_HAL_Driver/Src/stm32f3xx_hal_i2c.c ****         else
 818:Drivers/STM32F3xx_HAL_Driver/Src/stm32f3xx_hal_i2c.c ****         {
 819:Drivers/STM32F3xx_HAL_Driver/Src/stm32f3xx_hal_i2c.c ****           hi2c->XferSize = hi2c->XferCount;
 904              		.loc 1 819 0
 905 017e FB68     		ldr	r3, [r7, #12]
 906 0180 5B8D     		ldrh	r3, [r3, #42]	@ movhi
 907 0182 9AB2     		uxth	r2, r3
 908 0184 FB68     		ldr	r3, [r7, #12]
 909 0186 1A85     		strh	r2, [r3, #40]	@ movhi
 820:Drivers/STM32F3xx_HAL_Driver/Src/stm32f3xx_hal_i2c.c ****           I2C_TransferConfig(hi2c, DevAddress, hi2c->XferSize, I2C_AUTOEND_MODE, I2C_NO_STARTSTOP);
 910              		.loc 1 820 0
 911 0188 FB68     		ldr	r3, [r7, #12]
 912 018a 1B8D     		ldrh	r3, [r3, #40]
 913 018c DBB2     		uxtb	r3, r3
 914 018e 7A89     		ldrh	r2, [r7, #10]
 915 0190 0021     		movs	r1, #0
 916 0192 0091     		str	r1, [sp]
 917 0194 F868     		ldr	r0, [r7, #12]
 918 0196 1146     		mov	r1, r2
 919 0198 1A46     		mov	r2, r3
 920 019a 4FF00073 		mov	r3, #33554432
 921 019e FFF7FEFF 		bl	I2C_TransferConfig
 922              	.L37:
 784:Drivers/STM32F3xx_HAL_Driver/Src/stm32f3xx_hal_i2c.c ****     {
 923              		.loc 1 784 0 discriminator 1
 924 01a2 FB68     		ldr	r3, [r7, #12]
 925 01a4 5B8D     		ldrh	r3, [r3, #42]	@ movhi
 926 01a6 9BB2     		uxth	r3, r3
 927 01a8 002B     		cmp	r3, #0
 928 01aa 95D1     		bne	.L42
 821:Drivers/STM32F3xx_HAL_Driver/Src/stm32f3xx_hal_i2c.c ****         }
 822:Drivers/STM32F3xx_HAL_Driver/Src/stm32f3xx_hal_i2c.c ****       }
 823:Drivers/STM32F3xx_HAL_Driver/Src/stm32f3xx_hal_i2c.c ****     }
 824:Drivers/STM32F3xx_HAL_Driver/Src/stm32f3xx_hal_i2c.c **** 
 825:Drivers/STM32F3xx_HAL_Driver/Src/stm32f3xx_hal_i2c.c ****     /* No need to Check TC flag, with AUTOEND mode the stop is automatically generated */
 826:Drivers/STM32F3xx_HAL_Driver/Src/stm32f3xx_hal_i2c.c ****     /* Wait until STOPF flag is set */
 827:Drivers/STM32F3xx_HAL_Driver/Src/stm32f3xx_hal_i2c.c ****     if(I2C_WaitOnSTOPFlagUntilTimeout(hi2c, Timeout, tickstart) != HAL_OK)
 929              		.loc 1 827 0
 930 01ac F868     		ldr	r0, [r7, #12]
 931 01ae 396A     		ldr	r1, [r7, #32]
 932 01b0 7A69     		ldr	r2, [r7, #20]
 933 01b2 FFF7FEFF 		bl	I2C_WaitOnSTOPFlagUntilTimeout
 934 01b6 0346     		mov	r3, r0
 935 01b8 002B     		cmp	r3, #0
 936 01ba 07D0     		beq	.L43
 828:Drivers/STM32F3xx_HAL_Driver/Src/stm32f3xx_hal_i2c.c ****     {
 829:Drivers/STM32F3xx_HAL_Driver/Src/stm32f3xx_hal_i2c.c ****       if(hi2c->ErrorCode == HAL_I2C_ERROR_AF)
 937              		.loc 1 829 0
 938 01bc FB68     		ldr	r3, [r7, #12]
 939 01be 5B6C     		ldr	r3, [r3, #68]
 940 01c0 042B     		cmp	r3, #4
 941 01c2 01D1     		bne	.L44
 830:Drivers/STM32F3xx_HAL_Driver/Src/stm32f3xx_hal_i2c.c ****       {
 831:Drivers/STM32F3xx_HAL_Driver/Src/stm32f3xx_hal_i2c.c ****         return HAL_ERROR;
ARM GAS  /tmp/cccd70Af.s 			page 32


 942              		.loc 1 831 0
 943 01c4 0123     		movs	r3, #1
 944 01c6 1CE0     		b	.L33
 945              	.L44:
 832:Drivers/STM32F3xx_HAL_Driver/Src/stm32f3xx_hal_i2c.c ****       }
 833:Drivers/STM32F3xx_HAL_Driver/Src/stm32f3xx_hal_i2c.c ****       else
 834:Drivers/STM32F3xx_HAL_Driver/Src/stm32f3xx_hal_i2c.c ****       {
 835:Drivers/STM32F3xx_HAL_Driver/Src/stm32f3xx_hal_i2c.c ****         return HAL_TIMEOUT;
 946              		.loc 1 835 0
 947 01c8 0323     		movs	r3, #3
 948 01ca 1AE0     		b	.L33
 949              	.L43:
 836:Drivers/STM32F3xx_HAL_Driver/Src/stm32f3xx_hal_i2c.c ****       }
 837:Drivers/STM32F3xx_HAL_Driver/Src/stm32f3xx_hal_i2c.c ****     }
 838:Drivers/STM32F3xx_HAL_Driver/Src/stm32f3xx_hal_i2c.c **** 
 839:Drivers/STM32F3xx_HAL_Driver/Src/stm32f3xx_hal_i2c.c ****     /* Clear STOP Flag */
 840:Drivers/STM32F3xx_HAL_Driver/Src/stm32f3xx_hal_i2c.c ****     __HAL_I2C_CLEAR_FLAG(hi2c, I2C_FLAG_STOPF);
 950              		.loc 1 840 0
 951 01cc FB68     		ldr	r3, [r7, #12]
 952 01ce 1B68     		ldr	r3, [r3]
 953 01d0 2022     		movs	r2, #32
 954 01d2 DA61     		str	r2, [r3, #28]
 841:Drivers/STM32F3xx_HAL_Driver/Src/stm32f3xx_hal_i2c.c **** 
 842:Drivers/STM32F3xx_HAL_Driver/Src/stm32f3xx_hal_i2c.c ****     /* Clear Configuration Register 2 */
 843:Drivers/STM32F3xx_HAL_Driver/Src/stm32f3xx_hal_i2c.c ****     I2C_RESET_CR2(hi2c);
 955              		.loc 1 843 0
 956 01d4 FB68     		ldr	r3, [r7, #12]
 957 01d6 1A68     		ldr	r2, [r3]
 958 01d8 FB68     		ldr	r3, [r7, #12]
 959 01da 1B68     		ldr	r3, [r3]
 960 01dc 5968     		ldr	r1, [r3, #4]
 961 01de 0B4B     		ldr	r3, .L45
 962 01e0 0B40     		ands	r3, r3, r1
 963 01e2 5360     		str	r3, [r2, #4]
 844:Drivers/STM32F3xx_HAL_Driver/Src/stm32f3xx_hal_i2c.c **** 
 845:Drivers/STM32F3xx_HAL_Driver/Src/stm32f3xx_hal_i2c.c ****     hi2c->State = HAL_I2C_STATE_READY;
 964              		.loc 1 845 0
 965 01e4 FB68     		ldr	r3, [r7, #12]
 966 01e6 2022     		movs	r2, #32
 967 01e8 83F84120 		strb	r2, [r3, #65]
 846:Drivers/STM32F3xx_HAL_Driver/Src/stm32f3xx_hal_i2c.c ****     hi2c->Mode = HAL_I2C_MODE_NONE;
 968              		.loc 1 846 0
 969 01ec FB68     		ldr	r3, [r7, #12]
 970 01ee 0022     		movs	r2, #0
 971 01f0 83F84220 		strb	r2, [r3, #66]
 847:Drivers/STM32F3xx_HAL_Driver/Src/stm32f3xx_hal_i2c.c **** 
 848:Drivers/STM32F3xx_HAL_Driver/Src/stm32f3xx_hal_i2c.c ****     /* Process Unlocked */
 849:Drivers/STM32F3xx_HAL_Driver/Src/stm32f3xx_hal_i2c.c ****     __HAL_UNLOCK(hi2c);
 972              		.loc 1 849 0
 973 01f4 FB68     		ldr	r3, [r7, #12]
 974 01f6 0022     		movs	r2, #0
 975 01f8 83F84020 		strb	r2, [r3, #64]
 850:Drivers/STM32F3xx_HAL_Driver/Src/stm32f3xx_hal_i2c.c ****     
 851:Drivers/STM32F3xx_HAL_Driver/Src/stm32f3xx_hal_i2c.c ****     return HAL_OK;
 976              		.loc 1 851 0
 977 01fc 0023     		movs	r3, #0
 978 01fe 00E0     		b	.L33
ARM GAS  /tmp/cccd70Af.s 			page 33


 979              	.L31:
 852:Drivers/STM32F3xx_HAL_Driver/Src/stm32f3xx_hal_i2c.c ****   }
 853:Drivers/STM32F3xx_HAL_Driver/Src/stm32f3xx_hal_i2c.c ****   else
 854:Drivers/STM32F3xx_HAL_Driver/Src/stm32f3xx_hal_i2c.c ****   {
 855:Drivers/STM32F3xx_HAL_Driver/Src/stm32f3xx_hal_i2c.c ****     return HAL_BUSY;
 980              		.loc 1 855 0
 981 0200 0223     		movs	r3, #2
 982              	.L33:
 856:Drivers/STM32F3xx_HAL_Driver/Src/stm32f3xx_hal_i2c.c ****   }
 857:Drivers/STM32F3xx_HAL_Driver/Src/stm32f3xx_hal_i2c.c **** }
 983              		.loc 1 857 0
 984 0202 1846     		mov	r0, r3
 985 0204 1837     		adds	r7, r7, #24
 986 0206 BD46     		mov	sp, r7
 987              		@ sp needed
 988 0208 80BD     		pop	{r7, pc}
 989              	.L46:
 990 020a 00BF     		.align	2
 991              	.L45:
 992 020c 00E800FE 		.word	-33495040
 993              		.cfi_endproc
 994              	.LFE130:
 996              		.section	.text.HAL_I2C_Slave_Transmit,"ax",%progbits
 997              		.align	2
 998              		.global	HAL_I2C_Slave_Transmit
 999              		.thumb
 1000              		.thumb_func
 1002              	HAL_I2C_Slave_Transmit:
 1003              	.LFB131:
 858:Drivers/STM32F3xx_HAL_Driver/Src/stm32f3xx_hal_i2c.c **** 
 859:Drivers/STM32F3xx_HAL_Driver/Src/stm32f3xx_hal_i2c.c **** /**
 860:Drivers/STM32F3xx_HAL_Driver/Src/stm32f3xx_hal_i2c.c ****   * @brief  Transmits in slave mode an amount of data in blocking mode. 
 861:Drivers/STM32F3xx_HAL_Driver/Src/stm32f3xx_hal_i2c.c ****   * @param  hi2c Pointer to a I2C_HandleTypeDef structure that contains
 862:Drivers/STM32F3xx_HAL_Driver/Src/stm32f3xx_hal_i2c.c ****   *                the configuration information for the specified I2C.
 863:Drivers/STM32F3xx_HAL_Driver/Src/stm32f3xx_hal_i2c.c ****   * @param  pData Pointer to data buffer
 864:Drivers/STM32F3xx_HAL_Driver/Src/stm32f3xx_hal_i2c.c ****   * @param  Size Amount of data to be sent
 865:Drivers/STM32F3xx_HAL_Driver/Src/stm32f3xx_hal_i2c.c ****   * @param  Timeout Timeout duration
 866:Drivers/STM32F3xx_HAL_Driver/Src/stm32f3xx_hal_i2c.c ****   * @retval HAL status
 867:Drivers/STM32F3xx_HAL_Driver/Src/stm32f3xx_hal_i2c.c ****   */
 868:Drivers/STM32F3xx_HAL_Driver/Src/stm32f3xx_hal_i2c.c **** HAL_StatusTypeDef HAL_I2C_Slave_Transmit(I2C_HandleTypeDef *hi2c, uint8_t *pData, uint16_t Size, ui
 869:Drivers/STM32F3xx_HAL_Driver/Src/stm32f3xx_hal_i2c.c **** {
 1004              		.loc 1 869 0
 1005              		.cfi_startproc
 1006              		@ args = 0, pretend = 0, frame = 24
 1007              		@ frame_needed = 1, uses_anonymous_args = 0
 1008 0000 80B5     		push	{r7, lr}
 1009              	.LCFI18:
 1010              		.cfi_def_cfa_offset 8
 1011              		.cfi_offset 7, -8
 1012              		.cfi_offset 14, -4
 1013 0002 88B0     		sub	sp, sp, #32
 1014              	.LCFI19:
 1015              		.cfi_def_cfa_offset 40
 1016 0004 02AF     		add	r7, sp, #8
 1017              	.LCFI20:
 1018              		.cfi_def_cfa 7, 32
 1019 0006 F860     		str	r0, [r7, #12]
ARM GAS  /tmp/cccd70Af.s 			page 34


 1020 0008 B960     		str	r1, [r7, #8]
 1021 000a 3B60     		str	r3, [r7]
 1022 000c 1346     		mov	r3, r2	@ movhi
 1023 000e FB80     		strh	r3, [r7, #6]	@ movhi
 870:Drivers/STM32F3xx_HAL_Driver/Src/stm32f3xx_hal_i2c.c ****   uint32_t tickstart = 0U;
 1024              		.loc 1 870 0
 1025 0010 0023     		movs	r3, #0
 1026 0012 7B61     		str	r3, [r7, #20]
 871:Drivers/STM32F3xx_HAL_Driver/Src/stm32f3xx_hal_i2c.c **** 
 872:Drivers/STM32F3xx_HAL_Driver/Src/stm32f3xx_hal_i2c.c ****   if(hi2c->State == HAL_I2C_STATE_READY)
 1027              		.loc 1 872 0
 1028 0014 FB68     		ldr	r3, [r7, #12]
 1029 0016 93F84130 		ldrb	r3, [r3, #65]
 1030 001a DBB2     		uxtb	r3, r3
 1031 001c 202B     		cmp	r3, #32
 1032 001e 40F0F680 		bne	.L48
 873:Drivers/STM32F3xx_HAL_Driver/Src/stm32f3xx_hal_i2c.c ****   {    
 874:Drivers/STM32F3xx_HAL_Driver/Src/stm32f3xx_hal_i2c.c ****     if((pData == NULL) || (Size == 0U))
 1033              		.loc 1 874 0
 1034 0022 BB68     		ldr	r3, [r7, #8]
 1035 0024 002B     		cmp	r3, #0
 1036 0026 02D0     		beq	.L49
 1037              		.loc 1 874 0 is_stmt 0 discriminator 1
 1038 0028 FB88     		ldrh	r3, [r7, #6]
 1039 002a 002B     		cmp	r3, #0
 1040 002c 01D1     		bne	.L50
 1041              	.L49:
 875:Drivers/STM32F3xx_HAL_Driver/Src/stm32f3xx_hal_i2c.c ****     {
 876:Drivers/STM32F3xx_HAL_Driver/Src/stm32f3xx_hal_i2c.c ****       return  HAL_ERROR;
 1042              		.loc 1 876 0 is_stmt 1
 1043 002e 0123     		movs	r3, #1
 1044 0030 EEE0     		b	.L51
 1045              	.L50:
 877:Drivers/STM32F3xx_HAL_Driver/Src/stm32f3xx_hal_i2c.c ****     }
 878:Drivers/STM32F3xx_HAL_Driver/Src/stm32f3xx_hal_i2c.c ****     /* Process Locked */
 879:Drivers/STM32F3xx_HAL_Driver/Src/stm32f3xx_hal_i2c.c ****     __HAL_LOCK(hi2c);
 1046              		.loc 1 879 0
 1047 0032 FB68     		ldr	r3, [r7, #12]
 1048 0034 93F84030 		ldrb	r3, [r3, #64]	@ zero_extendqisi2
 1049 0038 012B     		cmp	r3, #1
 1050 003a 01D1     		bne	.L52
 1051              		.loc 1 879 0 is_stmt 0 discriminator 1
 1052 003c 0223     		movs	r3, #2
 1053 003e E7E0     		b	.L51
 1054              	.L52:
 1055              		.loc 1 879 0 discriminator 2
 1056 0040 FB68     		ldr	r3, [r7, #12]
 1057 0042 0122     		movs	r2, #1
 1058 0044 83F84020 		strb	r2, [r3, #64]
 880:Drivers/STM32F3xx_HAL_Driver/Src/stm32f3xx_hal_i2c.c **** 
 881:Drivers/STM32F3xx_HAL_Driver/Src/stm32f3xx_hal_i2c.c ****     /* Init tickstart for timeout management*/
 882:Drivers/STM32F3xx_HAL_Driver/Src/stm32f3xx_hal_i2c.c ****     tickstart = HAL_GetTick();
 1059              		.loc 1 882 0 is_stmt 1 discriminator 2
 1060 0048 FFF7FEFF 		bl	HAL_GetTick
 1061 004c 7861     		str	r0, [r7, #20]
 883:Drivers/STM32F3xx_HAL_Driver/Src/stm32f3xx_hal_i2c.c **** 
 884:Drivers/STM32F3xx_HAL_Driver/Src/stm32f3xx_hal_i2c.c ****     hi2c->State = HAL_I2C_STATE_BUSY_TX;
ARM GAS  /tmp/cccd70Af.s 			page 35


 1062              		.loc 1 884 0 discriminator 2
 1063 004e FB68     		ldr	r3, [r7, #12]
 1064 0050 2122     		movs	r2, #33
 1065 0052 83F84120 		strb	r2, [r3, #65]
 885:Drivers/STM32F3xx_HAL_Driver/Src/stm32f3xx_hal_i2c.c ****     hi2c->Mode = HAL_I2C_MODE_SLAVE;
 1066              		.loc 1 885 0 discriminator 2
 1067 0056 FB68     		ldr	r3, [r7, #12]
 1068 0058 2022     		movs	r2, #32
 1069 005a 83F84220 		strb	r2, [r3, #66]
 886:Drivers/STM32F3xx_HAL_Driver/Src/stm32f3xx_hal_i2c.c ****     hi2c->ErrorCode   = HAL_I2C_ERROR_NONE;
 1070              		.loc 1 886 0 discriminator 2
 1071 005e FB68     		ldr	r3, [r7, #12]
 1072 0060 0022     		movs	r2, #0
 1073 0062 5A64     		str	r2, [r3, #68]
 887:Drivers/STM32F3xx_HAL_Driver/Src/stm32f3xx_hal_i2c.c ****     
 888:Drivers/STM32F3xx_HAL_Driver/Src/stm32f3xx_hal_i2c.c ****     /* Prepare transfer parameters */
 889:Drivers/STM32F3xx_HAL_Driver/Src/stm32f3xx_hal_i2c.c ****     hi2c->pBuffPtr  = pData;
 1074              		.loc 1 889 0 discriminator 2
 1075 0064 FB68     		ldr	r3, [r7, #12]
 1076 0066 BA68     		ldr	r2, [r7, #8]
 1077 0068 5A62     		str	r2, [r3, #36]
 890:Drivers/STM32F3xx_HAL_Driver/Src/stm32f3xx_hal_i2c.c ****     hi2c->XferCount = Size;
 1078              		.loc 1 890 0 discriminator 2
 1079 006a FB68     		ldr	r3, [r7, #12]
 1080 006c FA88     		ldrh	r2, [r7, #6]	@ movhi
 1081 006e 5A85     		strh	r2, [r3, #42]	@ movhi
 891:Drivers/STM32F3xx_HAL_Driver/Src/stm32f3xx_hal_i2c.c ****     hi2c->XferISR   = NULL;
 1082              		.loc 1 891 0 discriminator 2
 1083 0070 FB68     		ldr	r3, [r7, #12]
 1084 0072 0022     		movs	r2, #0
 1085 0074 5A63     		str	r2, [r3, #52]
 892:Drivers/STM32F3xx_HAL_Driver/Src/stm32f3xx_hal_i2c.c **** 
 893:Drivers/STM32F3xx_HAL_Driver/Src/stm32f3xx_hal_i2c.c ****     /* Enable Address Acknowledge */
 894:Drivers/STM32F3xx_HAL_Driver/Src/stm32f3xx_hal_i2c.c ****     hi2c->Instance->CR2 &= ~I2C_CR2_NACK;
 1086              		.loc 1 894 0 discriminator 2
 1087 0076 FB68     		ldr	r3, [r7, #12]
 1088 0078 1B68     		ldr	r3, [r3]
 1089 007a FA68     		ldr	r2, [r7, #12]
 1090 007c 1268     		ldr	r2, [r2]
 1091 007e 5268     		ldr	r2, [r2, #4]
 1092 0080 22F40042 		bic	r2, r2, #32768
 1093 0084 5A60     		str	r2, [r3, #4]
 895:Drivers/STM32F3xx_HAL_Driver/Src/stm32f3xx_hal_i2c.c **** 
 896:Drivers/STM32F3xx_HAL_Driver/Src/stm32f3xx_hal_i2c.c ****     /* Wait until ADDR flag is set */
 897:Drivers/STM32F3xx_HAL_Driver/Src/stm32f3xx_hal_i2c.c ****     if(I2C_WaitOnFlagUntilTimeout(hi2c, I2C_FLAG_ADDR, RESET, Timeout, tickstart) != HAL_OK)
 1094              		.loc 1 897 0 discriminator 2
 1095 0086 7B69     		ldr	r3, [r7, #20]
 1096 0088 0093     		str	r3, [sp]
 1097 008a F868     		ldr	r0, [r7, #12]
 1098 008c 0821     		movs	r1, #8
 1099 008e 0022     		movs	r2, #0
 1100 0090 3B68     		ldr	r3, [r7]
 1101 0092 FFF7FEFF 		bl	I2C_WaitOnFlagUntilTimeout
 1102 0096 0346     		mov	r3, r0
 1103 0098 002B     		cmp	r3, #0
 1104 009a 09D0     		beq	.L53
 898:Drivers/STM32F3xx_HAL_Driver/Src/stm32f3xx_hal_i2c.c ****     {
ARM GAS  /tmp/cccd70Af.s 			page 36


 899:Drivers/STM32F3xx_HAL_Driver/Src/stm32f3xx_hal_i2c.c ****       /* Disable Address Acknowledge */
 900:Drivers/STM32F3xx_HAL_Driver/Src/stm32f3xx_hal_i2c.c ****       hi2c->Instance->CR2 |= I2C_CR2_NACK;
 1105              		.loc 1 900 0
 1106 009c FB68     		ldr	r3, [r7, #12]
 1107 009e 1B68     		ldr	r3, [r3]
 1108 00a0 FA68     		ldr	r2, [r7, #12]
 1109 00a2 1268     		ldr	r2, [r2]
 1110 00a4 5268     		ldr	r2, [r2, #4]
 1111 00a6 42F40042 		orr	r2, r2, #32768
 1112 00aa 5A60     		str	r2, [r3, #4]
 901:Drivers/STM32F3xx_HAL_Driver/Src/stm32f3xx_hal_i2c.c ****       return HAL_TIMEOUT;
 1113              		.loc 1 901 0
 1114 00ac 0323     		movs	r3, #3
 1115 00ae AFE0     		b	.L51
 1116              	.L53:
 902:Drivers/STM32F3xx_HAL_Driver/Src/stm32f3xx_hal_i2c.c ****     }
 903:Drivers/STM32F3xx_HAL_Driver/Src/stm32f3xx_hal_i2c.c **** 
 904:Drivers/STM32F3xx_HAL_Driver/Src/stm32f3xx_hal_i2c.c ****     /* Clear ADDR flag */
 905:Drivers/STM32F3xx_HAL_Driver/Src/stm32f3xx_hal_i2c.c ****     __HAL_I2C_CLEAR_FLAG(hi2c,I2C_FLAG_ADDR);
 1117              		.loc 1 905 0
 1118 00b0 FB68     		ldr	r3, [r7, #12]
 1119 00b2 1B68     		ldr	r3, [r3]
 1120 00b4 0822     		movs	r2, #8
 1121 00b6 DA61     		str	r2, [r3, #28]
 906:Drivers/STM32F3xx_HAL_Driver/Src/stm32f3xx_hal_i2c.c **** 
 907:Drivers/STM32F3xx_HAL_Driver/Src/stm32f3xx_hal_i2c.c ****     /* If 10bit addressing mode is selected */
 908:Drivers/STM32F3xx_HAL_Driver/Src/stm32f3xx_hal_i2c.c ****     if(hi2c->Init.AddressingMode == I2C_ADDRESSINGMODE_10BIT)
 1122              		.loc 1 908 0
 1123 00b8 FB68     		ldr	r3, [r7, #12]
 1124 00ba DB68     		ldr	r3, [r3, #12]
 1125 00bc 022B     		cmp	r3, #2
 1126 00be 18D1     		bne	.L54
 909:Drivers/STM32F3xx_HAL_Driver/Src/stm32f3xx_hal_i2c.c ****     {
 910:Drivers/STM32F3xx_HAL_Driver/Src/stm32f3xx_hal_i2c.c ****       /* Wait until ADDR flag is set */
 911:Drivers/STM32F3xx_HAL_Driver/Src/stm32f3xx_hal_i2c.c ****       if(I2C_WaitOnFlagUntilTimeout(hi2c, I2C_FLAG_ADDR, RESET, Timeout, tickstart) != HAL_OK)
 1127              		.loc 1 911 0
 1128 00c0 7B69     		ldr	r3, [r7, #20]
 1129 00c2 0093     		str	r3, [sp]
 1130 00c4 F868     		ldr	r0, [r7, #12]
 1131 00c6 0821     		movs	r1, #8
 1132 00c8 0022     		movs	r2, #0
 1133 00ca 3B68     		ldr	r3, [r7]
 1134 00cc FFF7FEFF 		bl	I2C_WaitOnFlagUntilTimeout
 1135 00d0 0346     		mov	r3, r0
 1136 00d2 002B     		cmp	r3, #0
 1137 00d4 09D0     		beq	.L55
 912:Drivers/STM32F3xx_HAL_Driver/Src/stm32f3xx_hal_i2c.c ****       {
 913:Drivers/STM32F3xx_HAL_Driver/Src/stm32f3xx_hal_i2c.c ****         /* Disable Address Acknowledge */
 914:Drivers/STM32F3xx_HAL_Driver/Src/stm32f3xx_hal_i2c.c ****         hi2c->Instance->CR2 |= I2C_CR2_NACK;
 1138              		.loc 1 914 0
 1139 00d6 FB68     		ldr	r3, [r7, #12]
 1140 00d8 1B68     		ldr	r3, [r3]
 1141 00da FA68     		ldr	r2, [r7, #12]
 1142 00dc 1268     		ldr	r2, [r2]
 1143 00de 5268     		ldr	r2, [r2, #4]
 1144 00e0 42F40042 		orr	r2, r2, #32768
 1145 00e4 5A60     		str	r2, [r3, #4]
ARM GAS  /tmp/cccd70Af.s 			page 37


 915:Drivers/STM32F3xx_HAL_Driver/Src/stm32f3xx_hal_i2c.c ****         return HAL_TIMEOUT;
 1146              		.loc 1 915 0
 1147 00e6 0323     		movs	r3, #3
 1148 00e8 92E0     		b	.L51
 1149              	.L55:
 916:Drivers/STM32F3xx_HAL_Driver/Src/stm32f3xx_hal_i2c.c ****       }
 917:Drivers/STM32F3xx_HAL_Driver/Src/stm32f3xx_hal_i2c.c **** 
 918:Drivers/STM32F3xx_HAL_Driver/Src/stm32f3xx_hal_i2c.c ****       /* Clear ADDR flag */
 919:Drivers/STM32F3xx_HAL_Driver/Src/stm32f3xx_hal_i2c.c ****       __HAL_I2C_CLEAR_FLAG(hi2c,I2C_FLAG_ADDR);
 1150              		.loc 1 919 0
 1151 00ea FB68     		ldr	r3, [r7, #12]
 1152 00ec 1B68     		ldr	r3, [r3]
 1153 00ee 0822     		movs	r2, #8
 1154 00f0 DA61     		str	r2, [r3, #28]
 1155              	.L54:
 920:Drivers/STM32F3xx_HAL_Driver/Src/stm32f3xx_hal_i2c.c ****     }
 921:Drivers/STM32F3xx_HAL_Driver/Src/stm32f3xx_hal_i2c.c **** 
 922:Drivers/STM32F3xx_HAL_Driver/Src/stm32f3xx_hal_i2c.c ****     /* Wait until DIR flag is set Transmitter mode */
 923:Drivers/STM32F3xx_HAL_Driver/Src/stm32f3xx_hal_i2c.c ****     if(I2C_WaitOnFlagUntilTimeout(hi2c, I2C_FLAG_DIR, RESET, Timeout, tickstart) != HAL_OK)
 1156              		.loc 1 923 0
 1157 00f2 7B69     		ldr	r3, [r7, #20]
 1158 00f4 0093     		str	r3, [sp]
 1159 00f6 F868     		ldr	r0, [r7, #12]
 1160 00f8 4FF48031 		mov	r1, #65536
 1161 00fc 0022     		movs	r2, #0
 1162 00fe 3B68     		ldr	r3, [r7]
 1163 0100 FFF7FEFF 		bl	I2C_WaitOnFlagUntilTimeout
 1164 0104 0346     		mov	r3, r0
 1165 0106 002B     		cmp	r3, #0
 1166 0108 09D0     		beq	.L56
 924:Drivers/STM32F3xx_HAL_Driver/Src/stm32f3xx_hal_i2c.c ****     {
 925:Drivers/STM32F3xx_HAL_Driver/Src/stm32f3xx_hal_i2c.c ****       /* Disable Address Acknowledge */
 926:Drivers/STM32F3xx_HAL_Driver/Src/stm32f3xx_hal_i2c.c ****       hi2c->Instance->CR2 |= I2C_CR2_NACK;
 1167              		.loc 1 926 0
 1168 010a FB68     		ldr	r3, [r7, #12]
 1169 010c 1B68     		ldr	r3, [r3]
 1170 010e FA68     		ldr	r2, [r7, #12]
 1171 0110 1268     		ldr	r2, [r2]
 1172 0112 5268     		ldr	r2, [r2, #4]
 1173 0114 42F40042 		orr	r2, r2, #32768
 1174 0118 5A60     		str	r2, [r3, #4]
 927:Drivers/STM32F3xx_HAL_Driver/Src/stm32f3xx_hal_i2c.c ****       return HAL_TIMEOUT;
 1175              		.loc 1 927 0
 1176 011a 0323     		movs	r3, #3
 1177 011c 78E0     		b	.L51
 1178              	.L56:
 928:Drivers/STM32F3xx_HAL_Driver/Src/stm32f3xx_hal_i2c.c ****     }
 929:Drivers/STM32F3xx_HAL_Driver/Src/stm32f3xx_hal_i2c.c **** 
 930:Drivers/STM32F3xx_HAL_Driver/Src/stm32f3xx_hal_i2c.c ****     while(hi2c->XferCount > 0U)
 1179              		.loc 1 930 0
 1180 011e 27E0     		b	.L57
 1181              	.L60:
 931:Drivers/STM32F3xx_HAL_Driver/Src/stm32f3xx_hal_i2c.c ****     {
 932:Drivers/STM32F3xx_HAL_Driver/Src/stm32f3xx_hal_i2c.c ****       /* Wait until TXIS flag is set */
 933:Drivers/STM32F3xx_HAL_Driver/Src/stm32f3xx_hal_i2c.c ****       if(I2C_WaitOnTXISFlagUntilTimeout(hi2c, Timeout, tickstart) != HAL_OK)
 1182              		.loc 1 933 0
 1183 0120 F868     		ldr	r0, [r7, #12]
ARM GAS  /tmp/cccd70Af.s 			page 38


 1184 0122 3968     		ldr	r1, [r7]
 1185 0124 7A69     		ldr	r2, [r7, #20]
 1186 0126 FFF7FEFF 		bl	I2C_WaitOnTXISFlagUntilTimeout
 1187 012a 0346     		mov	r3, r0
 1188 012c 002B     		cmp	r3, #0
 1189 012e 0FD0     		beq	.L58
 934:Drivers/STM32F3xx_HAL_Driver/Src/stm32f3xx_hal_i2c.c ****       {
 935:Drivers/STM32F3xx_HAL_Driver/Src/stm32f3xx_hal_i2c.c ****         /* Disable Address Acknowledge */
 936:Drivers/STM32F3xx_HAL_Driver/Src/stm32f3xx_hal_i2c.c ****         hi2c->Instance->CR2 |= I2C_CR2_NACK;
 1190              		.loc 1 936 0
 1191 0130 FB68     		ldr	r3, [r7, #12]
 1192 0132 1B68     		ldr	r3, [r3]
 1193 0134 FA68     		ldr	r2, [r7, #12]
 1194 0136 1268     		ldr	r2, [r2]
 1195 0138 5268     		ldr	r2, [r2, #4]
 1196 013a 42F40042 		orr	r2, r2, #32768
 1197 013e 5A60     		str	r2, [r3, #4]
 937:Drivers/STM32F3xx_HAL_Driver/Src/stm32f3xx_hal_i2c.c **** 
 938:Drivers/STM32F3xx_HAL_Driver/Src/stm32f3xx_hal_i2c.c ****         if(hi2c->ErrorCode == HAL_I2C_ERROR_AF)
 1198              		.loc 1 938 0
 1199 0140 FB68     		ldr	r3, [r7, #12]
 1200 0142 5B6C     		ldr	r3, [r3, #68]
 1201 0144 042B     		cmp	r3, #4
 1202 0146 01D1     		bne	.L59
 939:Drivers/STM32F3xx_HAL_Driver/Src/stm32f3xx_hal_i2c.c ****         {
 940:Drivers/STM32F3xx_HAL_Driver/Src/stm32f3xx_hal_i2c.c ****           return HAL_ERROR;
 1203              		.loc 1 940 0
 1204 0148 0123     		movs	r3, #1
 1205 014a 61E0     		b	.L51
 1206              	.L59:
 941:Drivers/STM32F3xx_HAL_Driver/Src/stm32f3xx_hal_i2c.c ****         }
 942:Drivers/STM32F3xx_HAL_Driver/Src/stm32f3xx_hal_i2c.c ****         else
 943:Drivers/STM32F3xx_HAL_Driver/Src/stm32f3xx_hal_i2c.c ****         {
 944:Drivers/STM32F3xx_HAL_Driver/Src/stm32f3xx_hal_i2c.c ****           return HAL_TIMEOUT;
 1207              		.loc 1 944 0
 1208 014c 0323     		movs	r3, #3
 1209 014e 5FE0     		b	.L51
 1210              	.L58:
 945:Drivers/STM32F3xx_HAL_Driver/Src/stm32f3xx_hal_i2c.c ****         }
 946:Drivers/STM32F3xx_HAL_Driver/Src/stm32f3xx_hal_i2c.c ****       }
 947:Drivers/STM32F3xx_HAL_Driver/Src/stm32f3xx_hal_i2c.c ****       
 948:Drivers/STM32F3xx_HAL_Driver/Src/stm32f3xx_hal_i2c.c ****       /* Write data to TXDR */
 949:Drivers/STM32F3xx_HAL_Driver/Src/stm32f3xx_hal_i2c.c ****       hi2c->Instance->TXDR = (*hi2c->pBuffPtr++);
 1211              		.loc 1 949 0
 1212 0150 FB68     		ldr	r3, [r7, #12]
 1213 0152 1A68     		ldr	r2, [r3]
 1214 0154 FB68     		ldr	r3, [r7, #12]
 1215 0156 5B6A     		ldr	r3, [r3, #36]
 1216 0158 581C     		adds	r0, r3, #1
 1217 015a F968     		ldr	r1, [r7, #12]
 1218 015c 4862     		str	r0, [r1, #36]
 1219 015e 1B78     		ldrb	r3, [r3]	@ zero_extendqisi2
 1220 0160 9362     		str	r3, [r2, #40]
 950:Drivers/STM32F3xx_HAL_Driver/Src/stm32f3xx_hal_i2c.c ****       hi2c->XferCount--;
 1221              		.loc 1 950 0
 1222 0162 FB68     		ldr	r3, [r7, #12]
 1223 0164 5B8D     		ldrh	r3, [r3, #42]	@ movhi
ARM GAS  /tmp/cccd70Af.s 			page 39


 1224 0166 9BB2     		uxth	r3, r3
 1225 0168 013B     		subs	r3, r3, #1
 1226 016a 9AB2     		uxth	r2, r3
 1227 016c FB68     		ldr	r3, [r7, #12]
 1228 016e 5A85     		strh	r2, [r3, #42]	@ movhi
 1229              	.L57:
 930:Drivers/STM32F3xx_HAL_Driver/Src/stm32f3xx_hal_i2c.c ****     {
 1230              		.loc 1 930 0 discriminator 1
 1231 0170 FB68     		ldr	r3, [r7, #12]
 1232 0172 5B8D     		ldrh	r3, [r3, #42]	@ movhi
 1233 0174 9BB2     		uxth	r3, r3
 1234 0176 002B     		cmp	r3, #0
 1235 0178 D2D1     		bne	.L60
 951:Drivers/STM32F3xx_HAL_Driver/Src/stm32f3xx_hal_i2c.c ****     }
 952:Drivers/STM32F3xx_HAL_Driver/Src/stm32f3xx_hal_i2c.c **** 
 953:Drivers/STM32F3xx_HAL_Driver/Src/stm32f3xx_hal_i2c.c ****     /* Wait until STOP flag is set */
 954:Drivers/STM32F3xx_HAL_Driver/Src/stm32f3xx_hal_i2c.c ****     if(I2C_WaitOnSTOPFlagUntilTimeout(hi2c, Timeout, tickstart) != HAL_OK)
 1236              		.loc 1 954 0
 1237 017a F868     		ldr	r0, [r7, #12]
 1238 017c 3968     		ldr	r1, [r7]
 1239 017e 7A69     		ldr	r2, [r7, #20]
 1240 0180 FFF7FEFF 		bl	I2C_WaitOnSTOPFlagUntilTimeout
 1241 0184 0346     		mov	r3, r0
 1242 0186 002B     		cmp	r3, #0
 1243 0188 11D0     		beq	.L61
 955:Drivers/STM32F3xx_HAL_Driver/Src/stm32f3xx_hal_i2c.c ****     {
 956:Drivers/STM32F3xx_HAL_Driver/Src/stm32f3xx_hal_i2c.c ****       /* Disable Address Acknowledge */
 957:Drivers/STM32F3xx_HAL_Driver/Src/stm32f3xx_hal_i2c.c ****       hi2c->Instance->CR2 |= I2C_CR2_NACK;
 1244              		.loc 1 957 0
 1245 018a FB68     		ldr	r3, [r7, #12]
 1246 018c 1B68     		ldr	r3, [r3]
 1247 018e FA68     		ldr	r2, [r7, #12]
 1248 0190 1268     		ldr	r2, [r2]
 1249 0192 5268     		ldr	r2, [r2, #4]
 1250 0194 42F40042 		orr	r2, r2, #32768
 1251 0198 5A60     		str	r2, [r3, #4]
 958:Drivers/STM32F3xx_HAL_Driver/Src/stm32f3xx_hal_i2c.c **** 
 959:Drivers/STM32F3xx_HAL_Driver/Src/stm32f3xx_hal_i2c.c ****       if(hi2c->ErrorCode == HAL_I2C_ERROR_AF)
 1252              		.loc 1 959 0
 1253 019a FB68     		ldr	r3, [r7, #12]
 1254 019c 5B6C     		ldr	r3, [r3, #68]
 1255 019e 042B     		cmp	r3, #4
 1256 01a0 03D1     		bne	.L62
 960:Drivers/STM32F3xx_HAL_Driver/Src/stm32f3xx_hal_i2c.c ****       {
 961:Drivers/STM32F3xx_HAL_Driver/Src/stm32f3xx_hal_i2c.c **** 	/* Normal use case for Transmitter mode */
 962:Drivers/STM32F3xx_HAL_Driver/Src/stm32f3xx_hal_i2c.c **** 	/* A NACK is generated to confirm the end of transfer */
 963:Drivers/STM32F3xx_HAL_Driver/Src/stm32f3xx_hal_i2c.c **** 	hi2c->ErrorCode = HAL_I2C_ERROR_NONE;
 1257              		.loc 1 963 0
 1258 01a2 FB68     		ldr	r3, [r7, #12]
 1259 01a4 0022     		movs	r2, #0
 1260 01a6 5A64     		str	r2, [r3, #68]
 1261 01a8 01E0     		b	.L61
 1262              	.L62:
 964:Drivers/STM32F3xx_HAL_Driver/Src/stm32f3xx_hal_i2c.c ****       }
 965:Drivers/STM32F3xx_HAL_Driver/Src/stm32f3xx_hal_i2c.c ****       else
 966:Drivers/STM32F3xx_HAL_Driver/Src/stm32f3xx_hal_i2c.c ****       {
 967:Drivers/STM32F3xx_HAL_Driver/Src/stm32f3xx_hal_i2c.c ****         return HAL_TIMEOUT;
ARM GAS  /tmp/cccd70Af.s 			page 40


 1263              		.loc 1 967 0
 1264 01aa 0323     		movs	r3, #3
 1265 01ac 30E0     		b	.L51
 1266              	.L61:
 968:Drivers/STM32F3xx_HAL_Driver/Src/stm32f3xx_hal_i2c.c ****       }
 969:Drivers/STM32F3xx_HAL_Driver/Src/stm32f3xx_hal_i2c.c ****     }
 970:Drivers/STM32F3xx_HAL_Driver/Src/stm32f3xx_hal_i2c.c ****     
 971:Drivers/STM32F3xx_HAL_Driver/Src/stm32f3xx_hal_i2c.c ****     /* Clear STOP flag */
 972:Drivers/STM32F3xx_HAL_Driver/Src/stm32f3xx_hal_i2c.c ****     __HAL_I2C_CLEAR_FLAG(hi2c,I2C_FLAG_STOPF);
 1267              		.loc 1 972 0
 1268 01ae FB68     		ldr	r3, [r7, #12]
 1269 01b0 1B68     		ldr	r3, [r3]
 1270 01b2 2022     		movs	r2, #32
 1271 01b4 DA61     		str	r2, [r3, #28]
 973:Drivers/STM32F3xx_HAL_Driver/Src/stm32f3xx_hal_i2c.c ****     
 974:Drivers/STM32F3xx_HAL_Driver/Src/stm32f3xx_hal_i2c.c ****     /* Wait until BUSY flag is reset */ 
 975:Drivers/STM32F3xx_HAL_Driver/Src/stm32f3xx_hal_i2c.c ****     if(I2C_WaitOnFlagUntilTimeout(hi2c, I2C_FLAG_BUSY, SET, Timeout, tickstart) != HAL_OK)
 1272              		.loc 1 975 0
 1273 01b6 7B69     		ldr	r3, [r7, #20]
 1274 01b8 0093     		str	r3, [sp]
 1275 01ba F868     		ldr	r0, [r7, #12]
 1276 01bc 4FF40041 		mov	r1, #32768
 1277 01c0 0122     		movs	r2, #1
 1278 01c2 3B68     		ldr	r3, [r7]
 1279 01c4 FFF7FEFF 		bl	I2C_WaitOnFlagUntilTimeout
 1280 01c8 0346     		mov	r3, r0
 1281 01ca 002B     		cmp	r3, #0
 1282 01cc 09D0     		beq	.L63
 976:Drivers/STM32F3xx_HAL_Driver/Src/stm32f3xx_hal_i2c.c ****     {
 977:Drivers/STM32F3xx_HAL_Driver/Src/stm32f3xx_hal_i2c.c ****       /* Disable Address Acknowledge */
 978:Drivers/STM32F3xx_HAL_Driver/Src/stm32f3xx_hal_i2c.c ****       hi2c->Instance->CR2 |= I2C_CR2_NACK;
 1283              		.loc 1 978 0
 1284 01ce FB68     		ldr	r3, [r7, #12]
 1285 01d0 1B68     		ldr	r3, [r3]
 1286 01d2 FA68     		ldr	r2, [r7, #12]
 1287 01d4 1268     		ldr	r2, [r2]
 1288 01d6 5268     		ldr	r2, [r2, #4]
 1289 01d8 42F40042 		orr	r2, r2, #32768
 1290 01dc 5A60     		str	r2, [r3, #4]
 979:Drivers/STM32F3xx_HAL_Driver/Src/stm32f3xx_hal_i2c.c ****       return HAL_TIMEOUT;
 1291              		.loc 1 979 0
 1292 01de 0323     		movs	r3, #3
 1293 01e0 16E0     		b	.L51
 1294              	.L63:
 980:Drivers/STM32F3xx_HAL_Driver/Src/stm32f3xx_hal_i2c.c ****     }
 981:Drivers/STM32F3xx_HAL_Driver/Src/stm32f3xx_hal_i2c.c **** 
 982:Drivers/STM32F3xx_HAL_Driver/Src/stm32f3xx_hal_i2c.c ****     /* Disable Address Acknowledge */
 983:Drivers/STM32F3xx_HAL_Driver/Src/stm32f3xx_hal_i2c.c ****     hi2c->Instance->CR2 |= I2C_CR2_NACK;
 1295              		.loc 1 983 0
 1296 01e2 FB68     		ldr	r3, [r7, #12]
 1297 01e4 1B68     		ldr	r3, [r3]
 1298 01e6 FA68     		ldr	r2, [r7, #12]
 1299 01e8 1268     		ldr	r2, [r2]
 1300 01ea 5268     		ldr	r2, [r2, #4]
 1301 01ec 42F40042 		orr	r2, r2, #32768
 1302 01f0 5A60     		str	r2, [r3, #4]
 984:Drivers/STM32F3xx_HAL_Driver/Src/stm32f3xx_hal_i2c.c **** 
ARM GAS  /tmp/cccd70Af.s 			page 41


 985:Drivers/STM32F3xx_HAL_Driver/Src/stm32f3xx_hal_i2c.c ****     hi2c->State = HAL_I2C_STATE_READY;
 1303              		.loc 1 985 0
 1304 01f2 FB68     		ldr	r3, [r7, #12]
 1305 01f4 2022     		movs	r2, #32
 1306 01f6 83F84120 		strb	r2, [r3, #65]
 986:Drivers/STM32F3xx_HAL_Driver/Src/stm32f3xx_hal_i2c.c ****     hi2c->Mode = HAL_I2C_MODE_NONE;
 1307              		.loc 1 986 0
 1308 01fa FB68     		ldr	r3, [r7, #12]
 1309 01fc 0022     		movs	r2, #0
 1310 01fe 83F84220 		strb	r2, [r3, #66]
 987:Drivers/STM32F3xx_HAL_Driver/Src/stm32f3xx_hal_i2c.c **** 
 988:Drivers/STM32F3xx_HAL_Driver/Src/stm32f3xx_hal_i2c.c ****     /* Process Unlocked */
 989:Drivers/STM32F3xx_HAL_Driver/Src/stm32f3xx_hal_i2c.c ****     __HAL_UNLOCK(hi2c);
 1311              		.loc 1 989 0
 1312 0202 FB68     		ldr	r3, [r7, #12]
 1313 0204 0022     		movs	r2, #0
 1314 0206 83F84020 		strb	r2, [r3, #64]
 990:Drivers/STM32F3xx_HAL_Driver/Src/stm32f3xx_hal_i2c.c **** 
 991:Drivers/STM32F3xx_HAL_Driver/Src/stm32f3xx_hal_i2c.c ****     return HAL_OK;
 1315              		.loc 1 991 0
 1316 020a 0023     		movs	r3, #0
 1317 020c 00E0     		b	.L51
 1318              	.L48:
 992:Drivers/STM32F3xx_HAL_Driver/Src/stm32f3xx_hal_i2c.c ****   }
 993:Drivers/STM32F3xx_HAL_Driver/Src/stm32f3xx_hal_i2c.c ****   else
 994:Drivers/STM32F3xx_HAL_Driver/Src/stm32f3xx_hal_i2c.c ****   {
 995:Drivers/STM32F3xx_HAL_Driver/Src/stm32f3xx_hal_i2c.c ****     return HAL_BUSY;
 1319              		.loc 1 995 0
 1320 020e 0223     		movs	r3, #2
 1321              	.L51:
 996:Drivers/STM32F3xx_HAL_Driver/Src/stm32f3xx_hal_i2c.c ****   }
 997:Drivers/STM32F3xx_HAL_Driver/Src/stm32f3xx_hal_i2c.c **** }
 1322              		.loc 1 997 0
 1323 0210 1846     		mov	r0, r3
 1324 0212 1837     		adds	r7, r7, #24
 1325 0214 BD46     		mov	sp, r7
 1326              		@ sp needed
 1327 0216 80BD     		pop	{r7, pc}
 1328              		.cfi_endproc
 1329              	.LFE131:
 1331              		.section	.text.HAL_I2C_Slave_Receive,"ax",%progbits
 1332              		.align	2
 1333              		.global	HAL_I2C_Slave_Receive
 1334              		.thumb
 1335              		.thumb_func
 1337              	HAL_I2C_Slave_Receive:
 1338              	.LFB132:
 998:Drivers/STM32F3xx_HAL_Driver/Src/stm32f3xx_hal_i2c.c **** 
 999:Drivers/STM32F3xx_HAL_Driver/Src/stm32f3xx_hal_i2c.c **** /**
1000:Drivers/STM32F3xx_HAL_Driver/Src/stm32f3xx_hal_i2c.c ****   * @brief  Receive in slave mode an amount of data in blocking mode 
1001:Drivers/STM32F3xx_HAL_Driver/Src/stm32f3xx_hal_i2c.c ****   * @param  hi2c Pointer to a I2C_HandleTypeDef structure that contains
1002:Drivers/STM32F3xx_HAL_Driver/Src/stm32f3xx_hal_i2c.c ****   *                the configuration information for the specified I2C.
1003:Drivers/STM32F3xx_HAL_Driver/Src/stm32f3xx_hal_i2c.c ****   * @param  pData Pointer to data buffer
1004:Drivers/STM32F3xx_HAL_Driver/Src/stm32f3xx_hal_i2c.c ****   * @param  Size Amount of data to be sent
1005:Drivers/STM32F3xx_HAL_Driver/Src/stm32f3xx_hal_i2c.c ****   * @param  Timeout Timeout duration
1006:Drivers/STM32F3xx_HAL_Driver/Src/stm32f3xx_hal_i2c.c ****   * @retval HAL status
1007:Drivers/STM32F3xx_HAL_Driver/Src/stm32f3xx_hal_i2c.c ****   */
ARM GAS  /tmp/cccd70Af.s 			page 42


1008:Drivers/STM32F3xx_HAL_Driver/Src/stm32f3xx_hal_i2c.c **** HAL_StatusTypeDef HAL_I2C_Slave_Receive(I2C_HandleTypeDef *hi2c, uint8_t *pData, uint16_t Size, uin
1009:Drivers/STM32F3xx_HAL_Driver/Src/stm32f3xx_hal_i2c.c **** {
 1339              		.loc 1 1009 0
 1340              		.cfi_startproc
 1341              		@ args = 0, pretend = 0, frame = 24
 1342              		@ frame_needed = 1, uses_anonymous_args = 0
 1343 0000 80B5     		push	{r7, lr}
 1344              	.LCFI21:
 1345              		.cfi_def_cfa_offset 8
 1346              		.cfi_offset 7, -8
 1347              		.cfi_offset 14, -4
 1348 0002 88B0     		sub	sp, sp, #32
 1349              	.LCFI22:
 1350              		.cfi_def_cfa_offset 40
 1351 0004 02AF     		add	r7, sp, #8
 1352              	.LCFI23:
 1353              		.cfi_def_cfa 7, 32
 1354 0006 F860     		str	r0, [r7, #12]
 1355 0008 B960     		str	r1, [r7, #8]
 1356 000a 3B60     		str	r3, [r7]
 1357 000c 1346     		mov	r3, r2	@ movhi
 1358 000e FB80     		strh	r3, [r7, #6]	@ movhi
1010:Drivers/STM32F3xx_HAL_Driver/Src/stm32f3xx_hal_i2c.c ****   uint32_t tickstart = 0U;
 1359              		.loc 1 1010 0
 1360 0010 0023     		movs	r3, #0
 1361 0012 7B61     		str	r3, [r7, #20]
1011:Drivers/STM32F3xx_HAL_Driver/Src/stm32f3xx_hal_i2c.c **** 
1012:Drivers/STM32F3xx_HAL_Driver/Src/stm32f3xx_hal_i2c.c ****   if(hi2c->State == HAL_I2C_STATE_READY)
 1362              		.loc 1 1012 0
 1363 0014 FB68     		ldr	r3, [r7, #12]
 1364 0016 93F84130 		ldrb	r3, [r3, #65]
 1365 001a DBB2     		uxtb	r3, r3
 1366 001c 202B     		cmp	r3, #32
 1367 001e 40F0F080 		bne	.L65
1013:Drivers/STM32F3xx_HAL_Driver/Src/stm32f3xx_hal_i2c.c ****   {
1014:Drivers/STM32F3xx_HAL_Driver/Src/stm32f3xx_hal_i2c.c ****     if((pData == NULL) || (Size == 0U))
 1368              		.loc 1 1014 0
 1369 0022 BB68     		ldr	r3, [r7, #8]
 1370 0024 002B     		cmp	r3, #0
 1371 0026 02D0     		beq	.L66
 1372              		.loc 1 1014 0 is_stmt 0 discriminator 1
 1373 0028 FB88     		ldrh	r3, [r7, #6]
 1374 002a 002B     		cmp	r3, #0
 1375 002c 01D1     		bne	.L67
 1376              	.L66:
1015:Drivers/STM32F3xx_HAL_Driver/Src/stm32f3xx_hal_i2c.c ****     {
1016:Drivers/STM32F3xx_HAL_Driver/Src/stm32f3xx_hal_i2c.c ****       return  HAL_ERROR;
 1377              		.loc 1 1016 0 is_stmt 1
 1378 002e 0123     		movs	r3, #1
 1379 0030 E8E0     		b	.L68
 1380              	.L67:
1017:Drivers/STM32F3xx_HAL_Driver/Src/stm32f3xx_hal_i2c.c ****     }
1018:Drivers/STM32F3xx_HAL_Driver/Src/stm32f3xx_hal_i2c.c ****     /* Process Locked */
1019:Drivers/STM32F3xx_HAL_Driver/Src/stm32f3xx_hal_i2c.c ****     __HAL_LOCK(hi2c);
 1381              		.loc 1 1019 0
 1382 0032 FB68     		ldr	r3, [r7, #12]
 1383 0034 93F84030 		ldrb	r3, [r3, #64]	@ zero_extendqisi2
ARM GAS  /tmp/cccd70Af.s 			page 43


 1384 0038 012B     		cmp	r3, #1
 1385 003a 01D1     		bne	.L69
 1386              		.loc 1 1019 0 is_stmt 0 discriminator 1
 1387 003c 0223     		movs	r3, #2
 1388 003e E1E0     		b	.L68
 1389              	.L69:
 1390              		.loc 1 1019 0 discriminator 2
 1391 0040 FB68     		ldr	r3, [r7, #12]
 1392 0042 0122     		movs	r2, #1
 1393 0044 83F84020 		strb	r2, [r3, #64]
1020:Drivers/STM32F3xx_HAL_Driver/Src/stm32f3xx_hal_i2c.c **** 
1021:Drivers/STM32F3xx_HAL_Driver/Src/stm32f3xx_hal_i2c.c ****     /* Init tickstart for timeout management*/
1022:Drivers/STM32F3xx_HAL_Driver/Src/stm32f3xx_hal_i2c.c ****     tickstart = HAL_GetTick();
 1394              		.loc 1 1022 0 is_stmt 1 discriminator 2
 1395 0048 FFF7FEFF 		bl	HAL_GetTick
 1396 004c 7861     		str	r0, [r7, #20]
1023:Drivers/STM32F3xx_HAL_Driver/Src/stm32f3xx_hal_i2c.c **** 
1024:Drivers/STM32F3xx_HAL_Driver/Src/stm32f3xx_hal_i2c.c ****     hi2c->State = HAL_I2C_STATE_BUSY_RX;
 1397              		.loc 1 1024 0 discriminator 2
 1398 004e FB68     		ldr	r3, [r7, #12]
 1399 0050 2222     		movs	r2, #34
 1400 0052 83F84120 		strb	r2, [r3, #65]
1025:Drivers/STM32F3xx_HAL_Driver/Src/stm32f3xx_hal_i2c.c ****     hi2c->Mode = HAL_I2C_MODE_SLAVE;
 1401              		.loc 1 1025 0 discriminator 2
 1402 0056 FB68     		ldr	r3, [r7, #12]
 1403 0058 2022     		movs	r2, #32
 1404 005a 83F84220 		strb	r2, [r3, #66]
1026:Drivers/STM32F3xx_HAL_Driver/Src/stm32f3xx_hal_i2c.c ****     hi2c->ErrorCode   = HAL_I2C_ERROR_NONE;
 1405              		.loc 1 1026 0 discriminator 2
 1406 005e FB68     		ldr	r3, [r7, #12]
 1407 0060 0022     		movs	r2, #0
 1408 0062 5A64     		str	r2, [r3, #68]
1027:Drivers/STM32F3xx_HAL_Driver/Src/stm32f3xx_hal_i2c.c **** 
1028:Drivers/STM32F3xx_HAL_Driver/Src/stm32f3xx_hal_i2c.c ****     /* Prepare transfer parameters */
1029:Drivers/STM32F3xx_HAL_Driver/Src/stm32f3xx_hal_i2c.c ****     hi2c->pBuffPtr  = pData;
 1409              		.loc 1 1029 0 discriminator 2
 1410 0064 FB68     		ldr	r3, [r7, #12]
 1411 0066 BA68     		ldr	r2, [r7, #8]
 1412 0068 5A62     		str	r2, [r3, #36]
1030:Drivers/STM32F3xx_HAL_Driver/Src/stm32f3xx_hal_i2c.c ****     hi2c->XferCount = Size;
 1413              		.loc 1 1030 0 discriminator 2
 1414 006a FB68     		ldr	r3, [r7, #12]
 1415 006c FA88     		ldrh	r2, [r7, #6]	@ movhi
 1416 006e 5A85     		strh	r2, [r3, #42]	@ movhi
1031:Drivers/STM32F3xx_HAL_Driver/Src/stm32f3xx_hal_i2c.c ****     hi2c->XferISR   = NULL;
 1417              		.loc 1 1031 0 discriminator 2
 1418 0070 FB68     		ldr	r3, [r7, #12]
 1419 0072 0022     		movs	r2, #0
 1420 0074 5A63     		str	r2, [r3, #52]
1032:Drivers/STM32F3xx_HAL_Driver/Src/stm32f3xx_hal_i2c.c **** 
1033:Drivers/STM32F3xx_HAL_Driver/Src/stm32f3xx_hal_i2c.c ****     /* Enable Address Acknowledge */
1034:Drivers/STM32F3xx_HAL_Driver/Src/stm32f3xx_hal_i2c.c ****     hi2c->Instance->CR2 &= ~I2C_CR2_NACK;
 1421              		.loc 1 1034 0 discriminator 2
 1422 0076 FB68     		ldr	r3, [r7, #12]
 1423 0078 1B68     		ldr	r3, [r3]
 1424 007a FA68     		ldr	r2, [r7, #12]
 1425 007c 1268     		ldr	r2, [r2]
ARM GAS  /tmp/cccd70Af.s 			page 44


 1426 007e 5268     		ldr	r2, [r2, #4]
 1427 0080 22F40042 		bic	r2, r2, #32768
 1428 0084 5A60     		str	r2, [r3, #4]
1035:Drivers/STM32F3xx_HAL_Driver/Src/stm32f3xx_hal_i2c.c **** 
1036:Drivers/STM32F3xx_HAL_Driver/Src/stm32f3xx_hal_i2c.c ****     /* Wait until ADDR flag is set */
1037:Drivers/STM32F3xx_HAL_Driver/Src/stm32f3xx_hal_i2c.c ****     if(I2C_WaitOnFlagUntilTimeout(hi2c, I2C_FLAG_ADDR, RESET, Timeout, tickstart) != HAL_OK)
 1429              		.loc 1 1037 0 discriminator 2
 1430 0086 7B69     		ldr	r3, [r7, #20]
 1431 0088 0093     		str	r3, [sp]
 1432 008a F868     		ldr	r0, [r7, #12]
 1433 008c 0821     		movs	r1, #8
 1434 008e 0022     		movs	r2, #0
 1435 0090 3B68     		ldr	r3, [r7]
 1436 0092 FFF7FEFF 		bl	I2C_WaitOnFlagUntilTimeout
 1437 0096 0346     		mov	r3, r0
 1438 0098 002B     		cmp	r3, #0
 1439 009a 09D0     		beq	.L70
1038:Drivers/STM32F3xx_HAL_Driver/Src/stm32f3xx_hal_i2c.c ****     {
1039:Drivers/STM32F3xx_HAL_Driver/Src/stm32f3xx_hal_i2c.c ****       /* Disable Address Acknowledge */
1040:Drivers/STM32F3xx_HAL_Driver/Src/stm32f3xx_hal_i2c.c ****       hi2c->Instance->CR2 |= I2C_CR2_NACK;
 1440              		.loc 1 1040 0
 1441 009c FB68     		ldr	r3, [r7, #12]
 1442 009e 1B68     		ldr	r3, [r3]
 1443 00a0 FA68     		ldr	r2, [r7, #12]
 1444 00a2 1268     		ldr	r2, [r2]
 1445 00a4 5268     		ldr	r2, [r2, #4]
 1446 00a6 42F40042 		orr	r2, r2, #32768
 1447 00aa 5A60     		str	r2, [r3, #4]
1041:Drivers/STM32F3xx_HAL_Driver/Src/stm32f3xx_hal_i2c.c ****       return HAL_TIMEOUT;
 1448              		.loc 1 1041 0
 1449 00ac 0323     		movs	r3, #3
 1450 00ae A9E0     		b	.L68
 1451              	.L70:
1042:Drivers/STM32F3xx_HAL_Driver/Src/stm32f3xx_hal_i2c.c ****     }
1043:Drivers/STM32F3xx_HAL_Driver/Src/stm32f3xx_hal_i2c.c **** 
1044:Drivers/STM32F3xx_HAL_Driver/Src/stm32f3xx_hal_i2c.c ****     /* Clear ADDR flag */
1045:Drivers/STM32F3xx_HAL_Driver/Src/stm32f3xx_hal_i2c.c ****     __HAL_I2C_CLEAR_FLAG(hi2c,I2C_FLAG_ADDR);
 1452              		.loc 1 1045 0
 1453 00b0 FB68     		ldr	r3, [r7, #12]
 1454 00b2 1B68     		ldr	r3, [r3]
 1455 00b4 0822     		movs	r2, #8
 1456 00b6 DA61     		str	r2, [r3, #28]
1046:Drivers/STM32F3xx_HAL_Driver/Src/stm32f3xx_hal_i2c.c **** 
1047:Drivers/STM32F3xx_HAL_Driver/Src/stm32f3xx_hal_i2c.c ****     /* Wait until DIR flag is reset Receiver mode */
1048:Drivers/STM32F3xx_HAL_Driver/Src/stm32f3xx_hal_i2c.c ****     if(I2C_WaitOnFlagUntilTimeout(hi2c, I2C_FLAG_DIR, SET, Timeout, tickstart) != HAL_OK)
 1457              		.loc 1 1048 0
 1458 00b8 7B69     		ldr	r3, [r7, #20]
 1459 00ba 0093     		str	r3, [sp]
 1460 00bc F868     		ldr	r0, [r7, #12]
 1461 00be 4FF48031 		mov	r1, #65536
 1462 00c2 0122     		movs	r2, #1
 1463 00c4 3B68     		ldr	r3, [r7]
 1464 00c6 FFF7FEFF 		bl	I2C_WaitOnFlagUntilTimeout
 1465 00ca 0346     		mov	r3, r0
 1466 00cc 002B     		cmp	r3, #0
 1467 00ce 09D0     		beq	.L71
1049:Drivers/STM32F3xx_HAL_Driver/Src/stm32f3xx_hal_i2c.c ****     {
ARM GAS  /tmp/cccd70Af.s 			page 45


1050:Drivers/STM32F3xx_HAL_Driver/Src/stm32f3xx_hal_i2c.c ****       /* Disable Address Acknowledge */
1051:Drivers/STM32F3xx_HAL_Driver/Src/stm32f3xx_hal_i2c.c ****       hi2c->Instance->CR2 |= I2C_CR2_NACK;
 1468              		.loc 1 1051 0
 1469 00d0 FB68     		ldr	r3, [r7, #12]
 1470 00d2 1B68     		ldr	r3, [r3]
 1471 00d4 FA68     		ldr	r2, [r7, #12]
 1472 00d6 1268     		ldr	r2, [r2]
 1473 00d8 5268     		ldr	r2, [r2, #4]
 1474 00da 42F40042 		orr	r2, r2, #32768
 1475 00de 5A60     		str	r2, [r3, #4]
1052:Drivers/STM32F3xx_HAL_Driver/Src/stm32f3xx_hal_i2c.c ****       return HAL_TIMEOUT;
 1476              		.loc 1 1052 0
 1477 00e0 0323     		movs	r3, #3
 1478 00e2 8FE0     		b	.L68
 1479              	.L71:
1053:Drivers/STM32F3xx_HAL_Driver/Src/stm32f3xx_hal_i2c.c ****     }
1054:Drivers/STM32F3xx_HAL_Driver/Src/stm32f3xx_hal_i2c.c **** 
1055:Drivers/STM32F3xx_HAL_Driver/Src/stm32f3xx_hal_i2c.c ****     while(hi2c->XferCount > 0U)
 1480              		.loc 1 1055 0
 1481 00e4 40E0     		b	.L72
 1482              	.L76:
1056:Drivers/STM32F3xx_HAL_Driver/Src/stm32f3xx_hal_i2c.c ****     {
1057:Drivers/STM32F3xx_HAL_Driver/Src/stm32f3xx_hal_i2c.c ****       /* Wait until RXNE flag is set */
1058:Drivers/STM32F3xx_HAL_Driver/Src/stm32f3xx_hal_i2c.c ****       if(I2C_WaitOnRXNEFlagUntilTimeout(hi2c, Timeout, tickstart) != HAL_OK)
 1483              		.loc 1 1058 0
 1484 00e6 F868     		ldr	r0, [r7, #12]
 1485 00e8 3968     		ldr	r1, [r7]
 1486 00ea 7A69     		ldr	r2, [r7, #20]
 1487 00ec FFF7FEFF 		bl	I2C_WaitOnRXNEFlagUntilTimeout
 1488 00f0 0346     		mov	r3, r0
 1489 00f2 002B     		cmp	r3, #0
 1490 00f4 27D0     		beq	.L73
1059:Drivers/STM32F3xx_HAL_Driver/Src/stm32f3xx_hal_i2c.c ****       {
1060:Drivers/STM32F3xx_HAL_Driver/Src/stm32f3xx_hal_i2c.c ****         /* Disable Address Acknowledge */
1061:Drivers/STM32F3xx_HAL_Driver/Src/stm32f3xx_hal_i2c.c ****         hi2c->Instance->CR2 |= I2C_CR2_NACK;
 1491              		.loc 1 1061 0
 1492 00f6 FB68     		ldr	r3, [r7, #12]
 1493 00f8 1B68     		ldr	r3, [r3]
 1494 00fa FA68     		ldr	r2, [r7, #12]
 1495 00fc 1268     		ldr	r2, [r2]
 1496 00fe 5268     		ldr	r2, [r2, #4]
 1497 0100 42F40042 		orr	r2, r2, #32768
 1498 0104 5A60     		str	r2, [r3, #4]
1062:Drivers/STM32F3xx_HAL_Driver/Src/stm32f3xx_hal_i2c.c **** 
1063:Drivers/STM32F3xx_HAL_Driver/Src/stm32f3xx_hal_i2c.c ****         /* Store Last receive data if any */
1064:Drivers/STM32F3xx_HAL_Driver/Src/stm32f3xx_hal_i2c.c ****         if(__HAL_I2C_GET_FLAG(hi2c, I2C_FLAG_RXNE) == SET)
 1499              		.loc 1 1064 0
 1500 0106 FB68     		ldr	r3, [r7, #12]
 1501 0108 1B68     		ldr	r3, [r3]
 1502 010a 9B69     		ldr	r3, [r3, #24]
 1503 010c 03F00403 		and	r3, r3, #4
 1504 0110 002B     		cmp	r3, #0
 1505 0112 10D0     		beq	.L74
1065:Drivers/STM32F3xx_HAL_Driver/Src/stm32f3xx_hal_i2c.c ****         {
1066:Drivers/STM32F3xx_HAL_Driver/Src/stm32f3xx_hal_i2c.c ****           /* Read data from RXDR */
1067:Drivers/STM32F3xx_HAL_Driver/Src/stm32f3xx_hal_i2c.c ****           (*hi2c->pBuffPtr++) = hi2c->Instance->RXDR;
 1506              		.loc 1 1067 0
ARM GAS  /tmp/cccd70Af.s 			page 46


 1507 0114 FB68     		ldr	r3, [r7, #12]
 1508 0116 5B6A     		ldr	r3, [r3, #36]
 1509 0118 591C     		adds	r1, r3, #1
 1510 011a FA68     		ldr	r2, [r7, #12]
 1511 011c 5162     		str	r1, [r2, #36]
 1512 011e FA68     		ldr	r2, [r7, #12]
 1513 0120 1268     		ldr	r2, [r2]
 1514 0122 526A     		ldr	r2, [r2, #36]
 1515 0124 D2B2     		uxtb	r2, r2
 1516 0126 1A70     		strb	r2, [r3]
1068:Drivers/STM32F3xx_HAL_Driver/Src/stm32f3xx_hal_i2c.c ****           hi2c->XferCount--;
 1517              		.loc 1 1068 0
 1518 0128 FB68     		ldr	r3, [r7, #12]
 1519 012a 5B8D     		ldrh	r3, [r3, #42]	@ movhi
 1520 012c 9BB2     		uxth	r3, r3
 1521 012e 013B     		subs	r3, r3, #1
 1522 0130 9AB2     		uxth	r2, r3
 1523 0132 FB68     		ldr	r3, [r7, #12]
 1524 0134 5A85     		strh	r2, [r3, #42]	@ movhi
 1525              	.L74:
1069:Drivers/STM32F3xx_HAL_Driver/Src/stm32f3xx_hal_i2c.c ****         }
1070:Drivers/STM32F3xx_HAL_Driver/Src/stm32f3xx_hal_i2c.c **** 
1071:Drivers/STM32F3xx_HAL_Driver/Src/stm32f3xx_hal_i2c.c ****         if(hi2c->ErrorCode == HAL_I2C_ERROR_TIMEOUT)
 1526              		.loc 1 1071 0
 1527 0136 FB68     		ldr	r3, [r7, #12]
 1528 0138 5B6C     		ldr	r3, [r3, #68]
 1529 013a 202B     		cmp	r3, #32
 1530 013c 01D1     		bne	.L75
1072:Drivers/STM32F3xx_HAL_Driver/Src/stm32f3xx_hal_i2c.c ****         {
1073:Drivers/STM32F3xx_HAL_Driver/Src/stm32f3xx_hal_i2c.c ****           return HAL_TIMEOUT;
 1531              		.loc 1 1073 0
 1532 013e 0323     		movs	r3, #3
 1533 0140 60E0     		b	.L68
 1534              	.L75:
1074:Drivers/STM32F3xx_HAL_Driver/Src/stm32f3xx_hal_i2c.c ****         }
1075:Drivers/STM32F3xx_HAL_Driver/Src/stm32f3xx_hal_i2c.c ****         else
1076:Drivers/STM32F3xx_HAL_Driver/Src/stm32f3xx_hal_i2c.c ****         {
1077:Drivers/STM32F3xx_HAL_Driver/Src/stm32f3xx_hal_i2c.c ****           return HAL_ERROR;
 1535              		.loc 1 1077 0
 1536 0142 0123     		movs	r3, #1
 1537 0144 5EE0     		b	.L68
 1538              	.L73:
1078:Drivers/STM32F3xx_HAL_Driver/Src/stm32f3xx_hal_i2c.c ****         }
1079:Drivers/STM32F3xx_HAL_Driver/Src/stm32f3xx_hal_i2c.c ****       }
1080:Drivers/STM32F3xx_HAL_Driver/Src/stm32f3xx_hal_i2c.c ****  
1081:Drivers/STM32F3xx_HAL_Driver/Src/stm32f3xx_hal_i2c.c ****       /* Read data from RXDR */
1082:Drivers/STM32F3xx_HAL_Driver/Src/stm32f3xx_hal_i2c.c ****       (*hi2c->pBuffPtr++) = hi2c->Instance->RXDR;
 1539              		.loc 1 1082 0
 1540 0146 FB68     		ldr	r3, [r7, #12]
 1541 0148 5B6A     		ldr	r3, [r3, #36]
 1542 014a 591C     		adds	r1, r3, #1
 1543 014c FA68     		ldr	r2, [r7, #12]
 1544 014e 5162     		str	r1, [r2, #36]
 1545 0150 FA68     		ldr	r2, [r7, #12]
 1546 0152 1268     		ldr	r2, [r2]
 1547 0154 526A     		ldr	r2, [r2, #36]
 1548 0156 D2B2     		uxtb	r2, r2
ARM GAS  /tmp/cccd70Af.s 			page 47


 1549 0158 1A70     		strb	r2, [r3]
1083:Drivers/STM32F3xx_HAL_Driver/Src/stm32f3xx_hal_i2c.c ****       hi2c->XferCount--;
 1550              		.loc 1 1083 0
 1551 015a FB68     		ldr	r3, [r7, #12]
 1552 015c 5B8D     		ldrh	r3, [r3, #42]	@ movhi
 1553 015e 9BB2     		uxth	r3, r3
 1554 0160 013B     		subs	r3, r3, #1
 1555 0162 9AB2     		uxth	r2, r3
 1556 0164 FB68     		ldr	r3, [r7, #12]
 1557 0166 5A85     		strh	r2, [r3, #42]	@ movhi
 1558              	.L72:
1055:Drivers/STM32F3xx_HAL_Driver/Src/stm32f3xx_hal_i2c.c ****     {
 1559              		.loc 1 1055 0 discriminator 1
 1560 0168 FB68     		ldr	r3, [r7, #12]
 1561 016a 5B8D     		ldrh	r3, [r3, #42]	@ movhi
 1562 016c 9BB2     		uxth	r3, r3
 1563 016e 002B     		cmp	r3, #0
 1564 0170 B9D1     		bne	.L76
1084:Drivers/STM32F3xx_HAL_Driver/Src/stm32f3xx_hal_i2c.c ****     }
1085:Drivers/STM32F3xx_HAL_Driver/Src/stm32f3xx_hal_i2c.c **** 
1086:Drivers/STM32F3xx_HAL_Driver/Src/stm32f3xx_hal_i2c.c ****     /* Wait until STOP flag is set */
1087:Drivers/STM32F3xx_HAL_Driver/Src/stm32f3xx_hal_i2c.c ****     if(I2C_WaitOnSTOPFlagUntilTimeout(hi2c, Timeout, tickstart) != HAL_OK)
 1565              		.loc 1 1087 0
 1566 0172 F868     		ldr	r0, [r7, #12]
 1567 0174 3968     		ldr	r1, [r7]
 1568 0176 7A69     		ldr	r2, [r7, #20]
 1569 0178 FFF7FEFF 		bl	I2C_WaitOnSTOPFlagUntilTimeout
 1570 017c 0346     		mov	r3, r0
 1571 017e 002B     		cmp	r3, #0
 1572 0180 0FD0     		beq	.L77
1088:Drivers/STM32F3xx_HAL_Driver/Src/stm32f3xx_hal_i2c.c ****     {
1089:Drivers/STM32F3xx_HAL_Driver/Src/stm32f3xx_hal_i2c.c ****       /* Disable Address Acknowledge */
1090:Drivers/STM32F3xx_HAL_Driver/Src/stm32f3xx_hal_i2c.c ****       hi2c->Instance->CR2 |= I2C_CR2_NACK;
 1573              		.loc 1 1090 0
 1574 0182 FB68     		ldr	r3, [r7, #12]
 1575 0184 1B68     		ldr	r3, [r3]
 1576 0186 FA68     		ldr	r2, [r7, #12]
 1577 0188 1268     		ldr	r2, [r2]
 1578 018a 5268     		ldr	r2, [r2, #4]
 1579 018c 42F40042 		orr	r2, r2, #32768
 1580 0190 5A60     		str	r2, [r3, #4]
1091:Drivers/STM32F3xx_HAL_Driver/Src/stm32f3xx_hal_i2c.c **** 
1092:Drivers/STM32F3xx_HAL_Driver/Src/stm32f3xx_hal_i2c.c ****       if(hi2c->ErrorCode == HAL_I2C_ERROR_AF)
 1581              		.loc 1 1092 0
 1582 0192 FB68     		ldr	r3, [r7, #12]
 1583 0194 5B6C     		ldr	r3, [r3, #68]
 1584 0196 042B     		cmp	r3, #4
 1585 0198 01D1     		bne	.L78
1093:Drivers/STM32F3xx_HAL_Driver/Src/stm32f3xx_hal_i2c.c ****       {
1094:Drivers/STM32F3xx_HAL_Driver/Src/stm32f3xx_hal_i2c.c ****         return HAL_ERROR;
 1586              		.loc 1 1094 0
 1587 019a 0123     		movs	r3, #1
 1588 019c 32E0     		b	.L68
 1589              	.L78:
1095:Drivers/STM32F3xx_HAL_Driver/Src/stm32f3xx_hal_i2c.c ****       }
1096:Drivers/STM32F3xx_HAL_Driver/Src/stm32f3xx_hal_i2c.c ****       else
1097:Drivers/STM32F3xx_HAL_Driver/Src/stm32f3xx_hal_i2c.c ****       {
ARM GAS  /tmp/cccd70Af.s 			page 48


1098:Drivers/STM32F3xx_HAL_Driver/Src/stm32f3xx_hal_i2c.c ****         return HAL_TIMEOUT;
 1590              		.loc 1 1098 0
 1591 019e 0323     		movs	r3, #3
 1592 01a0 30E0     		b	.L68
 1593              	.L77:
1099:Drivers/STM32F3xx_HAL_Driver/Src/stm32f3xx_hal_i2c.c ****       }
1100:Drivers/STM32F3xx_HAL_Driver/Src/stm32f3xx_hal_i2c.c ****     }
1101:Drivers/STM32F3xx_HAL_Driver/Src/stm32f3xx_hal_i2c.c **** 
1102:Drivers/STM32F3xx_HAL_Driver/Src/stm32f3xx_hal_i2c.c ****     /* Clear STOP flag */
1103:Drivers/STM32F3xx_HAL_Driver/Src/stm32f3xx_hal_i2c.c ****     __HAL_I2C_CLEAR_FLAG(hi2c,I2C_FLAG_STOPF);
 1594              		.loc 1 1103 0
 1595 01a2 FB68     		ldr	r3, [r7, #12]
 1596 01a4 1B68     		ldr	r3, [r3]
 1597 01a6 2022     		movs	r2, #32
 1598 01a8 DA61     		str	r2, [r3, #28]
1104:Drivers/STM32F3xx_HAL_Driver/Src/stm32f3xx_hal_i2c.c **** 
1105:Drivers/STM32F3xx_HAL_Driver/Src/stm32f3xx_hal_i2c.c ****     /* Wait until BUSY flag is reset */ 
1106:Drivers/STM32F3xx_HAL_Driver/Src/stm32f3xx_hal_i2c.c ****     if(I2C_WaitOnFlagUntilTimeout(hi2c, I2C_FLAG_BUSY, SET, Timeout, tickstart) != HAL_OK)
 1599              		.loc 1 1106 0
 1600 01aa 7B69     		ldr	r3, [r7, #20]
 1601 01ac 0093     		str	r3, [sp]
 1602 01ae F868     		ldr	r0, [r7, #12]
 1603 01b0 4FF40041 		mov	r1, #32768
 1604 01b4 0122     		movs	r2, #1
 1605 01b6 3B68     		ldr	r3, [r7]
 1606 01b8 FFF7FEFF 		bl	I2C_WaitOnFlagUntilTimeout
 1607 01bc 0346     		mov	r3, r0
 1608 01be 002B     		cmp	r3, #0
 1609 01c0 09D0     		beq	.L79
1107:Drivers/STM32F3xx_HAL_Driver/Src/stm32f3xx_hal_i2c.c ****     {
1108:Drivers/STM32F3xx_HAL_Driver/Src/stm32f3xx_hal_i2c.c ****       /* Disable Address Acknowledge */
1109:Drivers/STM32F3xx_HAL_Driver/Src/stm32f3xx_hal_i2c.c ****       hi2c->Instance->CR2 |= I2C_CR2_NACK;
 1610              		.loc 1 1109 0
 1611 01c2 FB68     		ldr	r3, [r7, #12]
 1612 01c4 1B68     		ldr	r3, [r3]
 1613 01c6 FA68     		ldr	r2, [r7, #12]
 1614 01c8 1268     		ldr	r2, [r2]
 1615 01ca 5268     		ldr	r2, [r2, #4]
 1616 01cc 42F40042 		orr	r2, r2, #32768
 1617 01d0 5A60     		str	r2, [r3, #4]
1110:Drivers/STM32F3xx_HAL_Driver/Src/stm32f3xx_hal_i2c.c ****       return HAL_TIMEOUT;
 1618              		.loc 1 1110 0
 1619 01d2 0323     		movs	r3, #3
 1620 01d4 16E0     		b	.L68
 1621              	.L79:
1111:Drivers/STM32F3xx_HAL_Driver/Src/stm32f3xx_hal_i2c.c ****     }
1112:Drivers/STM32F3xx_HAL_Driver/Src/stm32f3xx_hal_i2c.c **** 
1113:Drivers/STM32F3xx_HAL_Driver/Src/stm32f3xx_hal_i2c.c ****     /* Disable Address Acknowledge */
1114:Drivers/STM32F3xx_HAL_Driver/Src/stm32f3xx_hal_i2c.c ****     hi2c->Instance->CR2 |= I2C_CR2_NACK;
 1622              		.loc 1 1114 0
 1623 01d6 FB68     		ldr	r3, [r7, #12]
 1624 01d8 1B68     		ldr	r3, [r3]
 1625 01da FA68     		ldr	r2, [r7, #12]
 1626 01dc 1268     		ldr	r2, [r2]
 1627 01de 5268     		ldr	r2, [r2, #4]
 1628 01e0 42F40042 		orr	r2, r2, #32768
 1629 01e4 5A60     		str	r2, [r3, #4]
ARM GAS  /tmp/cccd70Af.s 			page 49


1115:Drivers/STM32F3xx_HAL_Driver/Src/stm32f3xx_hal_i2c.c **** 
1116:Drivers/STM32F3xx_HAL_Driver/Src/stm32f3xx_hal_i2c.c ****     hi2c->State = HAL_I2C_STATE_READY;
 1630              		.loc 1 1116 0
 1631 01e6 FB68     		ldr	r3, [r7, #12]
 1632 01e8 2022     		movs	r2, #32
 1633 01ea 83F84120 		strb	r2, [r3, #65]
1117:Drivers/STM32F3xx_HAL_Driver/Src/stm32f3xx_hal_i2c.c ****     hi2c->Mode = HAL_I2C_MODE_NONE;
 1634              		.loc 1 1117 0
 1635 01ee FB68     		ldr	r3, [r7, #12]
 1636 01f0 0022     		movs	r2, #0
 1637 01f2 83F84220 		strb	r2, [r3, #66]
1118:Drivers/STM32F3xx_HAL_Driver/Src/stm32f3xx_hal_i2c.c **** 
1119:Drivers/STM32F3xx_HAL_Driver/Src/stm32f3xx_hal_i2c.c ****     /* Process Unlocked */
1120:Drivers/STM32F3xx_HAL_Driver/Src/stm32f3xx_hal_i2c.c ****     __HAL_UNLOCK(hi2c);
 1638              		.loc 1 1120 0
 1639 01f6 FB68     		ldr	r3, [r7, #12]
 1640 01f8 0022     		movs	r2, #0
 1641 01fa 83F84020 		strb	r2, [r3, #64]
1121:Drivers/STM32F3xx_HAL_Driver/Src/stm32f3xx_hal_i2c.c **** 
1122:Drivers/STM32F3xx_HAL_Driver/Src/stm32f3xx_hal_i2c.c ****     return HAL_OK;
 1642              		.loc 1 1122 0
 1643 01fe 0023     		movs	r3, #0
 1644 0200 00E0     		b	.L68
 1645              	.L65:
1123:Drivers/STM32F3xx_HAL_Driver/Src/stm32f3xx_hal_i2c.c ****   }
1124:Drivers/STM32F3xx_HAL_Driver/Src/stm32f3xx_hal_i2c.c ****   else
1125:Drivers/STM32F3xx_HAL_Driver/Src/stm32f3xx_hal_i2c.c ****   {
1126:Drivers/STM32F3xx_HAL_Driver/Src/stm32f3xx_hal_i2c.c ****     return HAL_BUSY;
 1646              		.loc 1 1126 0
 1647 0202 0223     		movs	r3, #2
 1648              	.L68:
1127:Drivers/STM32F3xx_HAL_Driver/Src/stm32f3xx_hal_i2c.c ****   }
1128:Drivers/STM32F3xx_HAL_Driver/Src/stm32f3xx_hal_i2c.c **** }
 1649              		.loc 1 1128 0
 1650 0204 1846     		mov	r0, r3
 1651 0206 1837     		adds	r7, r7, #24
 1652 0208 BD46     		mov	sp, r7
 1653              		@ sp needed
 1654 020a 80BD     		pop	{r7, pc}
 1655              		.cfi_endproc
 1656              	.LFE132:
 1658              		.section	.text.HAL_I2C_Master_Transmit_IT,"ax",%progbits
 1659              		.align	2
 1660              		.global	HAL_I2C_Master_Transmit_IT
 1661              		.thumb
 1662              		.thumb_func
 1664              	HAL_I2C_Master_Transmit_IT:
 1665              	.LFB133:
1129:Drivers/STM32F3xx_HAL_Driver/Src/stm32f3xx_hal_i2c.c **** 
1130:Drivers/STM32F3xx_HAL_Driver/Src/stm32f3xx_hal_i2c.c **** /**
1131:Drivers/STM32F3xx_HAL_Driver/Src/stm32f3xx_hal_i2c.c ****   * @brief  Transmit in master mode an amount of data in non-blocking mode with Interrupt
1132:Drivers/STM32F3xx_HAL_Driver/Src/stm32f3xx_hal_i2c.c ****   * @param  hi2c Pointer to a I2C_HandleTypeDef structure that contains
1133:Drivers/STM32F3xx_HAL_Driver/Src/stm32f3xx_hal_i2c.c ****   *                the configuration information for the specified I2C.
1134:Drivers/STM32F3xx_HAL_Driver/Src/stm32f3xx_hal_i2c.c ****   * @param  DevAddress Target device address
1135:Drivers/STM32F3xx_HAL_Driver/Src/stm32f3xx_hal_i2c.c ****   * @param  pData Pointer to data buffer
1136:Drivers/STM32F3xx_HAL_Driver/Src/stm32f3xx_hal_i2c.c ****   * @param  Size Amount of data to be sent
1137:Drivers/STM32F3xx_HAL_Driver/Src/stm32f3xx_hal_i2c.c ****   * @retval HAL status
ARM GAS  /tmp/cccd70Af.s 			page 50


1138:Drivers/STM32F3xx_HAL_Driver/Src/stm32f3xx_hal_i2c.c ****   */
1139:Drivers/STM32F3xx_HAL_Driver/Src/stm32f3xx_hal_i2c.c **** HAL_StatusTypeDef HAL_I2C_Master_Transmit_IT(I2C_HandleTypeDef *hi2c, uint16_t DevAddress, uint8_t 
1140:Drivers/STM32F3xx_HAL_Driver/Src/stm32f3xx_hal_i2c.c **** {
 1666              		.loc 1 1140 0
 1667              		.cfi_startproc
 1668              		@ args = 0, pretend = 0, frame = 24
 1669              		@ frame_needed = 1, uses_anonymous_args = 0
 1670 0000 80B5     		push	{r7, lr}
 1671              	.LCFI24:
 1672              		.cfi_def_cfa_offset 8
 1673              		.cfi_offset 7, -8
 1674              		.cfi_offset 14, -4
 1675 0002 88B0     		sub	sp, sp, #32
 1676              	.LCFI25:
 1677              		.cfi_def_cfa_offset 40
 1678 0004 02AF     		add	r7, sp, #8
 1679              	.LCFI26:
 1680              		.cfi_def_cfa 7, 32
 1681 0006 F860     		str	r0, [r7, #12]
 1682 0008 7A60     		str	r2, [r7, #4]
 1683 000a 0A46     		mov	r2, r1	@ movhi
 1684 000c 7A81     		strh	r2, [r7, #10]	@ movhi
 1685 000e 3B81     		strh	r3, [r7, #8]	@ movhi
1141:Drivers/STM32F3xx_HAL_Driver/Src/stm32f3xx_hal_i2c.c ****   uint32_t xfermode = 0U;
 1686              		.loc 1 1141 0
 1687 0010 0023     		movs	r3, #0
 1688 0012 7B61     		str	r3, [r7, #20]
1142:Drivers/STM32F3xx_HAL_Driver/Src/stm32f3xx_hal_i2c.c **** 
1143:Drivers/STM32F3xx_HAL_Driver/Src/stm32f3xx_hal_i2c.c ****   if(hi2c->State == HAL_I2C_STATE_READY)
 1689              		.loc 1 1143 0
 1690 0014 FB68     		ldr	r3, [r7, #12]
 1691 0016 93F84130 		ldrb	r3, [r3, #65]
 1692 001a DBB2     		uxtb	r3, r3
 1693 001c 202B     		cmp	r3, #32
 1694 001e 55D1     		bne	.L81
1144:Drivers/STM32F3xx_HAL_Driver/Src/stm32f3xx_hal_i2c.c ****   {
1145:Drivers/STM32F3xx_HAL_Driver/Src/stm32f3xx_hal_i2c.c ****     if(__HAL_I2C_GET_FLAG(hi2c, I2C_FLAG_BUSY) == SET)
 1695              		.loc 1 1145 0
 1696 0020 FB68     		ldr	r3, [r7, #12]
 1697 0022 1B68     		ldr	r3, [r3]
 1698 0024 9B69     		ldr	r3, [r3, #24]
 1699 0026 03F40043 		and	r3, r3, #32768
 1700 002a 002B     		cmp	r3, #0
 1701 002c 01D0     		beq	.L82
1146:Drivers/STM32F3xx_HAL_Driver/Src/stm32f3xx_hal_i2c.c ****     {
1147:Drivers/STM32F3xx_HAL_Driver/Src/stm32f3xx_hal_i2c.c ****       return HAL_BUSY;
 1702              		.loc 1 1147 0
 1703 002e 0223     		movs	r3, #2
 1704 0030 4DE0     		b	.L83
 1705              	.L82:
1148:Drivers/STM32F3xx_HAL_Driver/Src/stm32f3xx_hal_i2c.c ****     }
1149:Drivers/STM32F3xx_HAL_Driver/Src/stm32f3xx_hal_i2c.c **** 
1150:Drivers/STM32F3xx_HAL_Driver/Src/stm32f3xx_hal_i2c.c ****     /* Process Locked */
1151:Drivers/STM32F3xx_HAL_Driver/Src/stm32f3xx_hal_i2c.c ****     __HAL_LOCK(hi2c);
 1706              		.loc 1 1151 0
 1707 0032 FB68     		ldr	r3, [r7, #12]
 1708 0034 93F84030 		ldrb	r3, [r3, #64]	@ zero_extendqisi2
ARM GAS  /tmp/cccd70Af.s 			page 51


 1709 0038 012B     		cmp	r3, #1
 1710 003a 01D1     		bne	.L84
 1711              		.loc 1 1151 0 is_stmt 0 discriminator 1
 1712 003c 0223     		movs	r3, #2
 1713 003e 46E0     		b	.L83
 1714              	.L84:
 1715              		.loc 1 1151 0 discriminator 2
 1716 0040 FB68     		ldr	r3, [r7, #12]
 1717 0042 0122     		movs	r2, #1
 1718 0044 83F84020 		strb	r2, [r3, #64]
1152:Drivers/STM32F3xx_HAL_Driver/Src/stm32f3xx_hal_i2c.c **** 
1153:Drivers/STM32F3xx_HAL_Driver/Src/stm32f3xx_hal_i2c.c ****     hi2c->State = HAL_I2C_STATE_BUSY_TX;
 1719              		.loc 1 1153 0 is_stmt 1 discriminator 2
 1720 0048 FB68     		ldr	r3, [r7, #12]
 1721 004a 2122     		movs	r2, #33
 1722 004c 83F84120 		strb	r2, [r3, #65]
1154:Drivers/STM32F3xx_HAL_Driver/Src/stm32f3xx_hal_i2c.c ****     hi2c->Mode = HAL_I2C_MODE_MASTER;
 1723              		.loc 1 1154 0 discriminator 2
 1724 0050 FB68     		ldr	r3, [r7, #12]
 1725 0052 1022     		movs	r2, #16
 1726 0054 83F84220 		strb	r2, [r3, #66]
1155:Drivers/STM32F3xx_HAL_Driver/Src/stm32f3xx_hal_i2c.c ****     hi2c->ErrorCode   = HAL_I2C_ERROR_NONE;
 1727              		.loc 1 1155 0 discriminator 2
 1728 0058 FB68     		ldr	r3, [r7, #12]
 1729 005a 0022     		movs	r2, #0
 1730 005c 5A64     		str	r2, [r3, #68]
1156:Drivers/STM32F3xx_HAL_Driver/Src/stm32f3xx_hal_i2c.c **** 
1157:Drivers/STM32F3xx_HAL_Driver/Src/stm32f3xx_hal_i2c.c ****     /* Prepare transfer parameters */
1158:Drivers/STM32F3xx_HAL_Driver/Src/stm32f3xx_hal_i2c.c ****     hi2c->pBuffPtr = pData;
 1731              		.loc 1 1158 0 discriminator 2
 1732 005e FB68     		ldr	r3, [r7, #12]
 1733 0060 7A68     		ldr	r2, [r7, #4]
 1734 0062 5A62     		str	r2, [r3, #36]
1159:Drivers/STM32F3xx_HAL_Driver/Src/stm32f3xx_hal_i2c.c ****     hi2c->XferCount = Size;
 1735              		.loc 1 1159 0 discriminator 2
 1736 0064 FB68     		ldr	r3, [r7, #12]
 1737 0066 3A89     		ldrh	r2, [r7, #8]	@ movhi
 1738 0068 5A85     		strh	r2, [r3, #42]	@ movhi
1160:Drivers/STM32F3xx_HAL_Driver/Src/stm32f3xx_hal_i2c.c ****     hi2c->XferOptions = I2C_NO_OPTION_FRAME;
 1739              		.loc 1 1160 0 discriminator 2
 1740 006a FB68     		ldr	r3, [r7, #12]
 1741 006c 1A4A     		ldr	r2, .L87
 1742 006e DA62     		str	r2, [r3, #44]
1161:Drivers/STM32F3xx_HAL_Driver/Src/stm32f3xx_hal_i2c.c ****     hi2c->XferISR     = I2C_Master_ISR_IT;
 1743              		.loc 1 1161 0 discriminator 2
 1744 0070 FB68     		ldr	r3, [r7, #12]
 1745 0072 1A4A     		ldr	r2, .L87+4
 1746 0074 5A63     		str	r2, [r3, #52]
1162:Drivers/STM32F3xx_HAL_Driver/Src/stm32f3xx_hal_i2c.c **** 
1163:Drivers/STM32F3xx_HAL_Driver/Src/stm32f3xx_hal_i2c.c ****     if(hi2c->XferCount > MAX_NBYTE_SIZE)
 1747              		.loc 1 1163 0 discriminator 2
 1748 0076 FB68     		ldr	r3, [r7, #12]
 1749 0078 5B8D     		ldrh	r3, [r3, #42]	@ movhi
 1750 007a 9BB2     		uxth	r3, r3
 1751 007c FF2B     		cmp	r3, #255
 1752 007e 06D9     		bls	.L85
1164:Drivers/STM32F3xx_HAL_Driver/Src/stm32f3xx_hal_i2c.c ****     {
ARM GAS  /tmp/cccd70Af.s 			page 52


1165:Drivers/STM32F3xx_HAL_Driver/Src/stm32f3xx_hal_i2c.c ****       hi2c->XferSize = MAX_NBYTE_SIZE;
 1753              		.loc 1 1165 0
 1754 0080 FB68     		ldr	r3, [r7, #12]
 1755 0082 FF22     		movs	r2, #255
 1756 0084 1A85     		strh	r2, [r3, #40]	@ movhi
1166:Drivers/STM32F3xx_HAL_Driver/Src/stm32f3xx_hal_i2c.c ****       xfermode = I2C_RELOAD_MODE;
 1757              		.loc 1 1166 0
 1758 0086 4FF08073 		mov	r3, #16777216
 1759 008a 7B61     		str	r3, [r7, #20]
 1760 008c 07E0     		b	.L86
 1761              	.L85:
1167:Drivers/STM32F3xx_HAL_Driver/Src/stm32f3xx_hal_i2c.c ****     }
1168:Drivers/STM32F3xx_HAL_Driver/Src/stm32f3xx_hal_i2c.c ****     else
1169:Drivers/STM32F3xx_HAL_Driver/Src/stm32f3xx_hal_i2c.c ****     {
1170:Drivers/STM32F3xx_HAL_Driver/Src/stm32f3xx_hal_i2c.c ****       hi2c->XferSize = hi2c->XferCount;
 1762              		.loc 1 1170 0
 1763 008e FB68     		ldr	r3, [r7, #12]
 1764 0090 5B8D     		ldrh	r3, [r3, #42]	@ movhi
 1765 0092 9AB2     		uxth	r2, r3
 1766 0094 FB68     		ldr	r3, [r7, #12]
 1767 0096 1A85     		strh	r2, [r3, #40]	@ movhi
1171:Drivers/STM32F3xx_HAL_Driver/Src/stm32f3xx_hal_i2c.c ****       xfermode = I2C_AUTOEND_MODE;
 1768              		.loc 1 1171 0
 1769 0098 4FF00073 		mov	r3, #33554432
 1770 009c 7B61     		str	r3, [r7, #20]
 1771              	.L86:
1172:Drivers/STM32F3xx_HAL_Driver/Src/stm32f3xx_hal_i2c.c ****     }
1173:Drivers/STM32F3xx_HAL_Driver/Src/stm32f3xx_hal_i2c.c **** 
1174:Drivers/STM32F3xx_HAL_Driver/Src/stm32f3xx_hal_i2c.c ****     /* Send Slave Address */
1175:Drivers/STM32F3xx_HAL_Driver/Src/stm32f3xx_hal_i2c.c ****     /* Set NBYTES to write and reload if hi2c->XferCount > MAX_NBYTE_SIZE */
1176:Drivers/STM32F3xx_HAL_Driver/Src/stm32f3xx_hal_i2c.c ****     I2C_TransferConfig(hi2c, DevAddress, hi2c->XferSize, xfermode, I2C_GENERATE_START_WRITE);
 1772              		.loc 1 1176 0
 1773 009e FB68     		ldr	r3, [r7, #12]
 1774 00a0 1B8D     		ldrh	r3, [r3, #40]
 1775 00a2 DBB2     		uxtb	r3, r3
 1776 00a4 7A89     		ldrh	r2, [r7, #10]
 1777 00a6 4FF40051 		mov	r1, #8192
 1778 00aa 0091     		str	r1, [sp]
 1779 00ac F868     		ldr	r0, [r7, #12]
 1780 00ae 1146     		mov	r1, r2
 1781 00b0 1A46     		mov	r2, r3
 1782 00b2 7B69     		ldr	r3, [r7, #20]
 1783 00b4 FFF7FEFF 		bl	I2C_TransferConfig
1177:Drivers/STM32F3xx_HAL_Driver/Src/stm32f3xx_hal_i2c.c **** 
1178:Drivers/STM32F3xx_HAL_Driver/Src/stm32f3xx_hal_i2c.c ****     /* Process Unlocked */
1179:Drivers/STM32F3xx_HAL_Driver/Src/stm32f3xx_hal_i2c.c ****     __HAL_UNLOCK(hi2c); 
 1784              		.loc 1 1179 0
 1785 00b8 FB68     		ldr	r3, [r7, #12]
 1786 00ba 0022     		movs	r2, #0
 1787 00bc 83F84020 		strb	r2, [r3, #64]
1180:Drivers/STM32F3xx_HAL_Driver/Src/stm32f3xx_hal_i2c.c **** 
1181:Drivers/STM32F3xx_HAL_Driver/Src/stm32f3xx_hal_i2c.c ****     /* Note : The I2C interrupts must be enabled after unlocking current process 
1182:Drivers/STM32F3xx_HAL_Driver/Src/stm32f3xx_hal_i2c.c ****               to avoid the risk of I2C interrupt handle execution before current
1183:Drivers/STM32F3xx_HAL_Driver/Src/stm32f3xx_hal_i2c.c ****               process unlock */
1184:Drivers/STM32F3xx_HAL_Driver/Src/stm32f3xx_hal_i2c.c **** 
1185:Drivers/STM32F3xx_HAL_Driver/Src/stm32f3xx_hal_i2c.c ****     /* Enable ERR, TC, STOP, NACK, TXI interrupt */
1186:Drivers/STM32F3xx_HAL_Driver/Src/stm32f3xx_hal_i2c.c ****     /* possible to enable all of these */
ARM GAS  /tmp/cccd70Af.s 			page 53


1187:Drivers/STM32F3xx_HAL_Driver/Src/stm32f3xx_hal_i2c.c ****     /* I2C_IT_ERRI | I2C_IT_TCI| I2C_IT_STOPI| I2C_IT_NACKI | I2C_IT_ADDRI | I2C_IT_RXI | I2C_IT_TX
1188:Drivers/STM32F3xx_HAL_Driver/Src/stm32f3xx_hal_i2c.c ****     I2C_Enable_IRQ(hi2c, I2C_XFER_TX_IT);
 1788              		.loc 1 1188 0
 1789 00c0 F868     		ldr	r0, [r7, #12]
 1790 00c2 0121     		movs	r1, #1
 1791 00c4 FFF7FEFF 		bl	I2C_Enable_IRQ
1189:Drivers/STM32F3xx_HAL_Driver/Src/stm32f3xx_hal_i2c.c **** 
1190:Drivers/STM32F3xx_HAL_Driver/Src/stm32f3xx_hal_i2c.c ****     return HAL_OK;
 1792              		.loc 1 1190 0
 1793 00c8 0023     		movs	r3, #0
 1794 00ca 00E0     		b	.L83
 1795              	.L81:
1191:Drivers/STM32F3xx_HAL_Driver/Src/stm32f3xx_hal_i2c.c ****   }
1192:Drivers/STM32F3xx_HAL_Driver/Src/stm32f3xx_hal_i2c.c ****   else
1193:Drivers/STM32F3xx_HAL_Driver/Src/stm32f3xx_hal_i2c.c ****   {
1194:Drivers/STM32F3xx_HAL_Driver/Src/stm32f3xx_hal_i2c.c ****     return HAL_BUSY;
 1796              		.loc 1 1194 0
 1797 00cc 0223     		movs	r3, #2
 1798              	.L83:
1195:Drivers/STM32F3xx_HAL_Driver/Src/stm32f3xx_hal_i2c.c ****   } 
1196:Drivers/STM32F3xx_HAL_Driver/Src/stm32f3xx_hal_i2c.c **** }
 1799              		.loc 1 1196 0
 1800 00ce 1846     		mov	r0, r3
 1801 00d0 1837     		adds	r7, r7, #24
 1802 00d2 BD46     		mov	sp, r7
 1803              		@ sp needed
 1804 00d4 80BD     		pop	{r7, pc}
 1805              	.L88:
 1806 00d6 00BF     		.align	2
 1807              	.L87:
 1808 00d8 0000FFFF 		.word	-65536
 1809 00dc 00000000 		.word	I2C_Master_ISR_IT
 1810              		.cfi_endproc
 1811              	.LFE133:
 1813              		.section	.text.HAL_I2C_Master_Receive_IT,"ax",%progbits
 1814              		.align	2
 1815              		.global	HAL_I2C_Master_Receive_IT
 1816              		.thumb
 1817              		.thumb_func
 1819              	HAL_I2C_Master_Receive_IT:
 1820              	.LFB134:
1197:Drivers/STM32F3xx_HAL_Driver/Src/stm32f3xx_hal_i2c.c **** 
1198:Drivers/STM32F3xx_HAL_Driver/Src/stm32f3xx_hal_i2c.c **** /**
1199:Drivers/STM32F3xx_HAL_Driver/Src/stm32f3xx_hal_i2c.c ****   * @brief  Receive in master mode an amount of data in non-blocking mode with Interrupt
1200:Drivers/STM32F3xx_HAL_Driver/Src/stm32f3xx_hal_i2c.c ****   * @param  hi2c Pointer to a I2C_HandleTypeDef structure that contains
1201:Drivers/STM32F3xx_HAL_Driver/Src/stm32f3xx_hal_i2c.c ****   *                the configuration information for the specified I2C.
1202:Drivers/STM32F3xx_HAL_Driver/Src/stm32f3xx_hal_i2c.c ****   * @param  DevAddress Target device address
1203:Drivers/STM32F3xx_HAL_Driver/Src/stm32f3xx_hal_i2c.c ****   * @param  pData Pointer to data buffer
1204:Drivers/STM32F3xx_HAL_Driver/Src/stm32f3xx_hal_i2c.c ****   * @param  Size Amount of data to be sent
1205:Drivers/STM32F3xx_HAL_Driver/Src/stm32f3xx_hal_i2c.c ****   * @retval HAL status
1206:Drivers/STM32F3xx_HAL_Driver/Src/stm32f3xx_hal_i2c.c ****   */
1207:Drivers/STM32F3xx_HAL_Driver/Src/stm32f3xx_hal_i2c.c **** HAL_StatusTypeDef HAL_I2C_Master_Receive_IT(I2C_HandleTypeDef *hi2c, uint16_t DevAddress, uint8_t *
1208:Drivers/STM32F3xx_HAL_Driver/Src/stm32f3xx_hal_i2c.c **** {
 1821              		.loc 1 1208 0
 1822              		.cfi_startproc
 1823              		@ args = 0, pretend = 0, frame = 24
 1824              		@ frame_needed = 1, uses_anonymous_args = 0
ARM GAS  /tmp/cccd70Af.s 			page 54


 1825 0000 80B5     		push	{r7, lr}
 1826              	.LCFI27:
 1827              		.cfi_def_cfa_offset 8
 1828              		.cfi_offset 7, -8
 1829              		.cfi_offset 14, -4
 1830 0002 88B0     		sub	sp, sp, #32
 1831              	.LCFI28:
 1832              		.cfi_def_cfa_offset 40
 1833 0004 02AF     		add	r7, sp, #8
 1834              	.LCFI29:
 1835              		.cfi_def_cfa 7, 32
 1836 0006 F860     		str	r0, [r7, #12]
 1837 0008 7A60     		str	r2, [r7, #4]
 1838 000a 0A46     		mov	r2, r1	@ movhi
 1839 000c 7A81     		strh	r2, [r7, #10]	@ movhi
 1840 000e 3B81     		strh	r3, [r7, #8]	@ movhi
1209:Drivers/STM32F3xx_HAL_Driver/Src/stm32f3xx_hal_i2c.c ****   uint32_t xfermode = 0U;
 1841              		.loc 1 1209 0
 1842 0010 0023     		movs	r3, #0
 1843 0012 7B61     		str	r3, [r7, #20]
1210:Drivers/STM32F3xx_HAL_Driver/Src/stm32f3xx_hal_i2c.c **** 
1211:Drivers/STM32F3xx_HAL_Driver/Src/stm32f3xx_hal_i2c.c ****   if(hi2c->State == HAL_I2C_STATE_READY)
 1844              		.loc 1 1211 0
 1845 0014 FB68     		ldr	r3, [r7, #12]
 1846 0016 93F84130 		ldrb	r3, [r3, #65]
 1847 001a DBB2     		uxtb	r3, r3
 1848 001c 202B     		cmp	r3, #32
 1849 001e 55D1     		bne	.L90
1212:Drivers/STM32F3xx_HAL_Driver/Src/stm32f3xx_hal_i2c.c ****   {
1213:Drivers/STM32F3xx_HAL_Driver/Src/stm32f3xx_hal_i2c.c ****     if(__HAL_I2C_GET_FLAG(hi2c, I2C_FLAG_BUSY) == SET)
 1850              		.loc 1 1213 0
 1851 0020 FB68     		ldr	r3, [r7, #12]
 1852 0022 1B68     		ldr	r3, [r3]
 1853 0024 9B69     		ldr	r3, [r3, #24]
 1854 0026 03F40043 		and	r3, r3, #32768
 1855 002a 002B     		cmp	r3, #0
 1856 002c 01D0     		beq	.L91
1214:Drivers/STM32F3xx_HAL_Driver/Src/stm32f3xx_hal_i2c.c ****     {
1215:Drivers/STM32F3xx_HAL_Driver/Src/stm32f3xx_hal_i2c.c ****       return HAL_BUSY;
 1857              		.loc 1 1215 0
 1858 002e 0223     		movs	r3, #2
 1859 0030 4DE0     		b	.L92
 1860              	.L91:
1216:Drivers/STM32F3xx_HAL_Driver/Src/stm32f3xx_hal_i2c.c ****     }
1217:Drivers/STM32F3xx_HAL_Driver/Src/stm32f3xx_hal_i2c.c **** 
1218:Drivers/STM32F3xx_HAL_Driver/Src/stm32f3xx_hal_i2c.c ****     /* Process Locked */
1219:Drivers/STM32F3xx_HAL_Driver/Src/stm32f3xx_hal_i2c.c ****     __HAL_LOCK(hi2c);
 1861              		.loc 1 1219 0
 1862 0032 FB68     		ldr	r3, [r7, #12]
 1863 0034 93F84030 		ldrb	r3, [r3, #64]	@ zero_extendqisi2
 1864 0038 012B     		cmp	r3, #1
 1865 003a 01D1     		bne	.L93
 1866              		.loc 1 1219 0 is_stmt 0 discriminator 1
 1867 003c 0223     		movs	r3, #2
 1868 003e 46E0     		b	.L92
 1869              	.L93:
 1870              		.loc 1 1219 0 discriminator 2
ARM GAS  /tmp/cccd70Af.s 			page 55


 1871 0040 FB68     		ldr	r3, [r7, #12]
 1872 0042 0122     		movs	r2, #1
 1873 0044 83F84020 		strb	r2, [r3, #64]
1220:Drivers/STM32F3xx_HAL_Driver/Src/stm32f3xx_hal_i2c.c **** 
1221:Drivers/STM32F3xx_HAL_Driver/Src/stm32f3xx_hal_i2c.c ****     hi2c->State = HAL_I2C_STATE_BUSY_RX;
 1874              		.loc 1 1221 0 is_stmt 1 discriminator 2
 1875 0048 FB68     		ldr	r3, [r7, #12]
 1876 004a 2222     		movs	r2, #34
 1877 004c 83F84120 		strb	r2, [r3, #65]
1222:Drivers/STM32F3xx_HAL_Driver/Src/stm32f3xx_hal_i2c.c ****     hi2c->Mode = HAL_I2C_MODE_MASTER;
 1878              		.loc 1 1222 0 discriminator 2
 1879 0050 FB68     		ldr	r3, [r7, #12]
 1880 0052 1022     		movs	r2, #16
 1881 0054 83F84220 		strb	r2, [r3, #66]
1223:Drivers/STM32F3xx_HAL_Driver/Src/stm32f3xx_hal_i2c.c ****     hi2c->ErrorCode   = HAL_I2C_ERROR_NONE;
 1882              		.loc 1 1223 0 discriminator 2
 1883 0058 FB68     		ldr	r3, [r7, #12]
 1884 005a 0022     		movs	r2, #0
 1885 005c 5A64     		str	r2, [r3, #68]
1224:Drivers/STM32F3xx_HAL_Driver/Src/stm32f3xx_hal_i2c.c **** 
1225:Drivers/STM32F3xx_HAL_Driver/Src/stm32f3xx_hal_i2c.c ****     /* Prepare transfer parameters */
1226:Drivers/STM32F3xx_HAL_Driver/Src/stm32f3xx_hal_i2c.c ****     hi2c->pBuffPtr = pData;
 1886              		.loc 1 1226 0 discriminator 2
 1887 005e FB68     		ldr	r3, [r7, #12]
 1888 0060 7A68     		ldr	r2, [r7, #4]
 1889 0062 5A62     		str	r2, [r3, #36]
1227:Drivers/STM32F3xx_HAL_Driver/Src/stm32f3xx_hal_i2c.c ****     hi2c->XferCount = Size;
 1890              		.loc 1 1227 0 discriminator 2
 1891 0064 FB68     		ldr	r3, [r7, #12]
 1892 0066 3A89     		ldrh	r2, [r7, #8]	@ movhi
 1893 0068 5A85     		strh	r2, [r3, #42]	@ movhi
1228:Drivers/STM32F3xx_HAL_Driver/Src/stm32f3xx_hal_i2c.c ****     hi2c->XferOptions = I2C_NO_OPTION_FRAME;
 1894              		.loc 1 1228 0 discriminator 2
 1895 006a FB68     		ldr	r3, [r7, #12]
 1896 006c 1A4A     		ldr	r2, .L96
 1897 006e DA62     		str	r2, [r3, #44]
1229:Drivers/STM32F3xx_HAL_Driver/Src/stm32f3xx_hal_i2c.c ****     hi2c->XferISR     = I2C_Master_ISR_IT;
 1898              		.loc 1 1229 0 discriminator 2
 1899 0070 FB68     		ldr	r3, [r7, #12]
 1900 0072 1A4A     		ldr	r2, .L96+4
 1901 0074 5A63     		str	r2, [r3, #52]
1230:Drivers/STM32F3xx_HAL_Driver/Src/stm32f3xx_hal_i2c.c **** 
1231:Drivers/STM32F3xx_HAL_Driver/Src/stm32f3xx_hal_i2c.c ****     if(hi2c->XferCount > MAX_NBYTE_SIZE)
 1902              		.loc 1 1231 0 discriminator 2
 1903 0076 FB68     		ldr	r3, [r7, #12]
 1904 0078 5B8D     		ldrh	r3, [r3, #42]	@ movhi
 1905 007a 9BB2     		uxth	r3, r3
 1906 007c FF2B     		cmp	r3, #255
 1907 007e 06D9     		bls	.L94
1232:Drivers/STM32F3xx_HAL_Driver/Src/stm32f3xx_hal_i2c.c ****     {
1233:Drivers/STM32F3xx_HAL_Driver/Src/stm32f3xx_hal_i2c.c ****       hi2c->XferSize = MAX_NBYTE_SIZE;
 1908              		.loc 1 1233 0
 1909 0080 FB68     		ldr	r3, [r7, #12]
 1910 0082 FF22     		movs	r2, #255
 1911 0084 1A85     		strh	r2, [r3, #40]	@ movhi
1234:Drivers/STM32F3xx_HAL_Driver/Src/stm32f3xx_hal_i2c.c ****       xfermode = I2C_RELOAD_MODE;
 1912              		.loc 1 1234 0
ARM GAS  /tmp/cccd70Af.s 			page 56


 1913 0086 4FF08073 		mov	r3, #16777216
 1914 008a 7B61     		str	r3, [r7, #20]
 1915 008c 07E0     		b	.L95
 1916              	.L94:
1235:Drivers/STM32F3xx_HAL_Driver/Src/stm32f3xx_hal_i2c.c ****     }
1236:Drivers/STM32F3xx_HAL_Driver/Src/stm32f3xx_hal_i2c.c ****     else
1237:Drivers/STM32F3xx_HAL_Driver/Src/stm32f3xx_hal_i2c.c ****     {
1238:Drivers/STM32F3xx_HAL_Driver/Src/stm32f3xx_hal_i2c.c ****       hi2c->XferSize = hi2c->XferCount;
 1917              		.loc 1 1238 0
 1918 008e FB68     		ldr	r3, [r7, #12]
 1919 0090 5B8D     		ldrh	r3, [r3, #42]	@ movhi
 1920 0092 9AB2     		uxth	r2, r3
 1921 0094 FB68     		ldr	r3, [r7, #12]
 1922 0096 1A85     		strh	r2, [r3, #40]	@ movhi
1239:Drivers/STM32F3xx_HAL_Driver/Src/stm32f3xx_hal_i2c.c ****       xfermode = I2C_AUTOEND_MODE;
 1923              		.loc 1 1239 0
 1924 0098 4FF00073 		mov	r3, #33554432
 1925 009c 7B61     		str	r3, [r7, #20]
 1926              	.L95:
1240:Drivers/STM32F3xx_HAL_Driver/Src/stm32f3xx_hal_i2c.c ****     }
1241:Drivers/STM32F3xx_HAL_Driver/Src/stm32f3xx_hal_i2c.c **** 
1242:Drivers/STM32F3xx_HAL_Driver/Src/stm32f3xx_hal_i2c.c ****     /* Send Slave Address */
1243:Drivers/STM32F3xx_HAL_Driver/Src/stm32f3xx_hal_i2c.c ****     /* Set NBYTES to write and reload if hi2c->XferCount > MAX_NBYTE_SIZE */
1244:Drivers/STM32F3xx_HAL_Driver/Src/stm32f3xx_hal_i2c.c ****     I2C_TransferConfig(hi2c, DevAddress, hi2c->XferSize, xfermode, I2C_GENERATE_START_READ);
 1927              		.loc 1 1244 0
 1928 009e FB68     		ldr	r3, [r7, #12]
 1929 00a0 1B8D     		ldrh	r3, [r3, #40]
 1930 00a2 DBB2     		uxtb	r3, r3
 1931 00a4 7A89     		ldrh	r2, [r7, #10]
 1932 00a6 4FF41051 		mov	r1, #9216
 1933 00aa 0091     		str	r1, [sp]
 1934 00ac F868     		ldr	r0, [r7, #12]
 1935 00ae 1146     		mov	r1, r2
 1936 00b0 1A46     		mov	r2, r3
 1937 00b2 7B69     		ldr	r3, [r7, #20]
 1938 00b4 FFF7FEFF 		bl	I2C_TransferConfig
1245:Drivers/STM32F3xx_HAL_Driver/Src/stm32f3xx_hal_i2c.c **** 
1246:Drivers/STM32F3xx_HAL_Driver/Src/stm32f3xx_hal_i2c.c ****     /* Process Unlocked */
1247:Drivers/STM32F3xx_HAL_Driver/Src/stm32f3xx_hal_i2c.c ****     __HAL_UNLOCK(hi2c); 
 1939              		.loc 1 1247 0
 1940 00b8 FB68     		ldr	r3, [r7, #12]
 1941 00ba 0022     		movs	r2, #0
 1942 00bc 83F84020 		strb	r2, [r3, #64]
1248:Drivers/STM32F3xx_HAL_Driver/Src/stm32f3xx_hal_i2c.c **** 
1249:Drivers/STM32F3xx_HAL_Driver/Src/stm32f3xx_hal_i2c.c ****     /* Note : The I2C interrupts must be enabled after unlocking current process 
1250:Drivers/STM32F3xx_HAL_Driver/Src/stm32f3xx_hal_i2c.c ****               to avoid the risk of I2C interrupt handle execution before current
1251:Drivers/STM32F3xx_HAL_Driver/Src/stm32f3xx_hal_i2c.c ****               process unlock */
1252:Drivers/STM32F3xx_HAL_Driver/Src/stm32f3xx_hal_i2c.c **** 
1253:Drivers/STM32F3xx_HAL_Driver/Src/stm32f3xx_hal_i2c.c ****     /* Enable ERR, TC, STOP, NACK, RXI interrupt */
1254:Drivers/STM32F3xx_HAL_Driver/Src/stm32f3xx_hal_i2c.c ****     /* possible to enable all of these */
1255:Drivers/STM32F3xx_HAL_Driver/Src/stm32f3xx_hal_i2c.c ****     /* I2C_IT_ERRI | I2C_IT_TCI| I2C_IT_STOPI| I2C_IT_NACKI | I2C_IT_ADDRI | I2C_IT_RXI | I2C_IT_TX
1256:Drivers/STM32F3xx_HAL_Driver/Src/stm32f3xx_hal_i2c.c ****     I2C_Enable_IRQ(hi2c, I2C_XFER_RX_IT);
 1943              		.loc 1 1256 0
 1944 00c0 F868     		ldr	r0, [r7, #12]
 1945 00c2 0221     		movs	r1, #2
 1946 00c4 FFF7FEFF 		bl	I2C_Enable_IRQ
1257:Drivers/STM32F3xx_HAL_Driver/Src/stm32f3xx_hal_i2c.c **** 
ARM GAS  /tmp/cccd70Af.s 			page 57


1258:Drivers/STM32F3xx_HAL_Driver/Src/stm32f3xx_hal_i2c.c ****     return HAL_OK;
 1947              		.loc 1 1258 0
 1948 00c8 0023     		movs	r3, #0
 1949 00ca 00E0     		b	.L92
 1950              	.L90:
1259:Drivers/STM32F3xx_HAL_Driver/Src/stm32f3xx_hal_i2c.c ****   }
1260:Drivers/STM32F3xx_HAL_Driver/Src/stm32f3xx_hal_i2c.c ****   else
1261:Drivers/STM32F3xx_HAL_Driver/Src/stm32f3xx_hal_i2c.c ****   {
1262:Drivers/STM32F3xx_HAL_Driver/Src/stm32f3xx_hal_i2c.c ****     return HAL_BUSY; 
 1951              		.loc 1 1262 0
 1952 00cc 0223     		movs	r3, #2
 1953              	.L92:
1263:Drivers/STM32F3xx_HAL_Driver/Src/stm32f3xx_hal_i2c.c ****   }
1264:Drivers/STM32F3xx_HAL_Driver/Src/stm32f3xx_hal_i2c.c **** }
 1954              		.loc 1 1264 0
 1955 00ce 1846     		mov	r0, r3
 1956 00d0 1837     		adds	r7, r7, #24
 1957 00d2 BD46     		mov	sp, r7
 1958              		@ sp needed
 1959 00d4 80BD     		pop	{r7, pc}
 1960              	.L97:
 1961 00d6 00BF     		.align	2
 1962              	.L96:
 1963 00d8 0000FFFF 		.word	-65536
 1964 00dc 00000000 		.word	I2C_Master_ISR_IT
 1965              		.cfi_endproc
 1966              	.LFE134:
 1968              		.section	.text.HAL_I2C_Slave_Transmit_IT,"ax",%progbits
 1969              		.align	2
 1970              		.global	HAL_I2C_Slave_Transmit_IT
 1971              		.thumb
 1972              		.thumb_func
 1974              	HAL_I2C_Slave_Transmit_IT:
 1975              	.LFB135:
1265:Drivers/STM32F3xx_HAL_Driver/Src/stm32f3xx_hal_i2c.c **** 
1266:Drivers/STM32F3xx_HAL_Driver/Src/stm32f3xx_hal_i2c.c **** /**
1267:Drivers/STM32F3xx_HAL_Driver/Src/stm32f3xx_hal_i2c.c ****   * @brief  Transmit in slave mode an amount of data in non-blocking mode with Interrupt 
1268:Drivers/STM32F3xx_HAL_Driver/Src/stm32f3xx_hal_i2c.c ****   * @param  hi2c Pointer to a I2C_HandleTypeDef structure that contains
1269:Drivers/STM32F3xx_HAL_Driver/Src/stm32f3xx_hal_i2c.c ****   *                the configuration information for the specified I2C.
1270:Drivers/STM32F3xx_HAL_Driver/Src/stm32f3xx_hal_i2c.c ****   * @param  pData Pointer to data buffer
1271:Drivers/STM32F3xx_HAL_Driver/Src/stm32f3xx_hal_i2c.c ****   * @param  Size Amount of data to be sent
1272:Drivers/STM32F3xx_HAL_Driver/Src/stm32f3xx_hal_i2c.c ****   * @retval HAL status
1273:Drivers/STM32F3xx_HAL_Driver/Src/stm32f3xx_hal_i2c.c ****   */
1274:Drivers/STM32F3xx_HAL_Driver/Src/stm32f3xx_hal_i2c.c **** HAL_StatusTypeDef HAL_I2C_Slave_Transmit_IT(I2C_HandleTypeDef *hi2c, uint8_t *pData, uint16_t Size)
1275:Drivers/STM32F3xx_HAL_Driver/Src/stm32f3xx_hal_i2c.c **** {
 1976              		.loc 1 1275 0
 1977              		.cfi_startproc
 1978              		@ args = 0, pretend = 0, frame = 16
 1979              		@ frame_needed = 1, uses_anonymous_args = 0
 1980 0000 80B5     		push	{r7, lr}
 1981              	.LCFI30:
 1982              		.cfi_def_cfa_offset 8
 1983              		.cfi_offset 7, -8
 1984              		.cfi_offset 14, -4
 1985 0002 84B0     		sub	sp, sp, #16
 1986              	.LCFI31:
 1987              		.cfi_def_cfa_offset 24
ARM GAS  /tmp/cccd70Af.s 			page 58


 1988 0004 00AF     		add	r7, sp, #0
 1989              	.LCFI32:
 1990              		.cfi_def_cfa_register 7
 1991 0006 F860     		str	r0, [r7, #12]
 1992 0008 B960     		str	r1, [r7, #8]
 1993 000a 1346     		mov	r3, r2
 1994 000c FB80     		strh	r3, [r7, #6]	@ movhi
1276:Drivers/STM32F3xx_HAL_Driver/Src/stm32f3xx_hal_i2c.c ****   if(hi2c->State == HAL_I2C_STATE_READY)
 1995              		.loc 1 1276 0
 1996 000e FB68     		ldr	r3, [r7, #12]
 1997 0010 93F84130 		ldrb	r3, [r3, #65]
 1998 0014 DBB2     		uxtb	r3, r3
 1999 0016 202B     		cmp	r3, #32
 2000 0018 38D1     		bne	.L99
1277:Drivers/STM32F3xx_HAL_Driver/Src/stm32f3xx_hal_i2c.c ****   {
1278:Drivers/STM32F3xx_HAL_Driver/Src/stm32f3xx_hal_i2c.c ****     /* Process Locked */
1279:Drivers/STM32F3xx_HAL_Driver/Src/stm32f3xx_hal_i2c.c ****     __HAL_LOCK(hi2c);
 2001              		.loc 1 1279 0
 2002 001a FB68     		ldr	r3, [r7, #12]
 2003 001c 93F84030 		ldrb	r3, [r3, #64]	@ zero_extendqisi2
 2004 0020 012B     		cmp	r3, #1
 2005 0022 01D1     		bne	.L100
 2006              		.loc 1 1279 0 is_stmt 0 discriminator 1
 2007 0024 0223     		movs	r3, #2
 2008 0026 32E0     		b	.L101
 2009              	.L100:
 2010              		.loc 1 1279 0 discriminator 2
 2011 0028 FB68     		ldr	r3, [r7, #12]
 2012 002a 0122     		movs	r2, #1
 2013 002c 83F84020 		strb	r2, [r3, #64]
1280:Drivers/STM32F3xx_HAL_Driver/Src/stm32f3xx_hal_i2c.c **** 
1281:Drivers/STM32F3xx_HAL_Driver/Src/stm32f3xx_hal_i2c.c ****     hi2c->State = HAL_I2C_STATE_BUSY_TX;
 2014              		.loc 1 1281 0 is_stmt 1 discriminator 2
 2015 0030 FB68     		ldr	r3, [r7, #12]
 2016 0032 2122     		movs	r2, #33
 2017 0034 83F84120 		strb	r2, [r3, #65]
1282:Drivers/STM32F3xx_HAL_Driver/Src/stm32f3xx_hal_i2c.c ****     hi2c->Mode = HAL_I2C_MODE_SLAVE;
 2018              		.loc 1 1282 0 discriminator 2
 2019 0038 FB68     		ldr	r3, [r7, #12]
 2020 003a 2022     		movs	r2, #32
 2021 003c 83F84220 		strb	r2, [r3, #66]
1283:Drivers/STM32F3xx_HAL_Driver/Src/stm32f3xx_hal_i2c.c ****     hi2c->ErrorCode   = HAL_I2C_ERROR_NONE;
 2022              		.loc 1 1283 0 discriminator 2
 2023 0040 FB68     		ldr	r3, [r7, #12]
 2024 0042 0022     		movs	r2, #0
 2025 0044 5A64     		str	r2, [r3, #68]
1284:Drivers/STM32F3xx_HAL_Driver/Src/stm32f3xx_hal_i2c.c ****     
1285:Drivers/STM32F3xx_HAL_Driver/Src/stm32f3xx_hal_i2c.c ****     /* Enable Address Acknowledge */
1286:Drivers/STM32F3xx_HAL_Driver/Src/stm32f3xx_hal_i2c.c ****     hi2c->Instance->CR2 &= ~I2C_CR2_NACK;
 2026              		.loc 1 1286 0 discriminator 2
 2027 0046 FB68     		ldr	r3, [r7, #12]
 2028 0048 1B68     		ldr	r3, [r3]
 2029 004a FA68     		ldr	r2, [r7, #12]
 2030 004c 1268     		ldr	r2, [r2]
 2031 004e 5268     		ldr	r2, [r2, #4]
 2032 0050 22F40042 		bic	r2, r2, #32768
 2033 0054 5A60     		str	r2, [r3, #4]
ARM GAS  /tmp/cccd70Af.s 			page 59


1287:Drivers/STM32F3xx_HAL_Driver/Src/stm32f3xx_hal_i2c.c **** 
1288:Drivers/STM32F3xx_HAL_Driver/Src/stm32f3xx_hal_i2c.c ****     /* Prepare transfer parameters */
1289:Drivers/STM32F3xx_HAL_Driver/Src/stm32f3xx_hal_i2c.c ****     hi2c->pBuffPtr = pData;
 2034              		.loc 1 1289 0 discriminator 2
 2035 0056 FB68     		ldr	r3, [r7, #12]
 2036 0058 BA68     		ldr	r2, [r7, #8]
 2037 005a 5A62     		str	r2, [r3, #36]
1290:Drivers/STM32F3xx_HAL_Driver/Src/stm32f3xx_hal_i2c.c ****     hi2c->XferCount = Size;
 2038              		.loc 1 1290 0 discriminator 2
 2039 005c FB68     		ldr	r3, [r7, #12]
 2040 005e FA88     		ldrh	r2, [r7, #6]	@ movhi
 2041 0060 5A85     		strh	r2, [r3, #42]	@ movhi
1291:Drivers/STM32F3xx_HAL_Driver/Src/stm32f3xx_hal_i2c.c ****     hi2c->XferSize    = hi2c->XferCount;
 2042              		.loc 1 1291 0 discriminator 2
 2043 0062 FB68     		ldr	r3, [r7, #12]
 2044 0064 5B8D     		ldrh	r3, [r3, #42]	@ movhi
 2045 0066 9AB2     		uxth	r2, r3
 2046 0068 FB68     		ldr	r3, [r7, #12]
 2047 006a 1A85     		strh	r2, [r3, #40]	@ movhi
1292:Drivers/STM32F3xx_HAL_Driver/Src/stm32f3xx_hal_i2c.c ****     hi2c->XferOptions = I2C_NO_OPTION_FRAME;
 2048              		.loc 1 1292 0 discriminator 2
 2049 006c FB68     		ldr	r3, [r7, #12]
 2050 006e 0A4A     		ldr	r2, .L102
 2051 0070 DA62     		str	r2, [r3, #44]
1293:Drivers/STM32F3xx_HAL_Driver/Src/stm32f3xx_hal_i2c.c ****     hi2c->XferISR     = I2C_Slave_ISR_IT;
 2052              		.loc 1 1293 0 discriminator 2
 2053 0072 FB68     		ldr	r3, [r7, #12]
 2054 0074 094A     		ldr	r2, .L102+4
 2055 0076 5A63     		str	r2, [r3, #52]
1294:Drivers/STM32F3xx_HAL_Driver/Src/stm32f3xx_hal_i2c.c **** 
1295:Drivers/STM32F3xx_HAL_Driver/Src/stm32f3xx_hal_i2c.c ****     /* Process Unlocked */
1296:Drivers/STM32F3xx_HAL_Driver/Src/stm32f3xx_hal_i2c.c ****     __HAL_UNLOCK(hi2c); 
 2056              		.loc 1 1296 0 discriminator 2
 2057 0078 FB68     		ldr	r3, [r7, #12]
 2058 007a 0022     		movs	r2, #0
 2059 007c 83F84020 		strb	r2, [r3, #64]
1297:Drivers/STM32F3xx_HAL_Driver/Src/stm32f3xx_hal_i2c.c **** 
1298:Drivers/STM32F3xx_HAL_Driver/Src/stm32f3xx_hal_i2c.c ****     /* Note : The I2C interrupts must be enabled after unlocking current process 
1299:Drivers/STM32F3xx_HAL_Driver/Src/stm32f3xx_hal_i2c.c ****               to avoid the risk of I2C interrupt handle execution before current
1300:Drivers/STM32F3xx_HAL_Driver/Src/stm32f3xx_hal_i2c.c ****               process unlock */
1301:Drivers/STM32F3xx_HAL_Driver/Src/stm32f3xx_hal_i2c.c **** 
1302:Drivers/STM32F3xx_HAL_Driver/Src/stm32f3xx_hal_i2c.c ****     /* Enable ERR, TC, STOP, NACK, TXI interrupt */
1303:Drivers/STM32F3xx_HAL_Driver/Src/stm32f3xx_hal_i2c.c ****     /* possible to enable all of these */
1304:Drivers/STM32F3xx_HAL_Driver/Src/stm32f3xx_hal_i2c.c ****     /* I2C_IT_ERRI | I2C_IT_TCI| I2C_IT_STOPI| I2C_IT_NACKI | I2C_IT_ADDRI | I2C_IT_RXI | I2C_IT_TX
1305:Drivers/STM32F3xx_HAL_Driver/Src/stm32f3xx_hal_i2c.c ****     I2C_Enable_IRQ(hi2c, I2C_XFER_TX_IT | I2C_XFER_LISTEN_IT);
 2060              		.loc 1 1305 0 discriminator 2
 2061 0080 F868     		ldr	r0, [r7, #12]
 2062 0082 0521     		movs	r1, #5
 2063 0084 FFF7FEFF 		bl	I2C_Enable_IRQ
1306:Drivers/STM32F3xx_HAL_Driver/Src/stm32f3xx_hal_i2c.c **** 
1307:Drivers/STM32F3xx_HAL_Driver/Src/stm32f3xx_hal_i2c.c ****     return HAL_OK;
 2064              		.loc 1 1307 0 discriminator 2
 2065 0088 0023     		movs	r3, #0
 2066 008a 00E0     		b	.L101
 2067              	.L99:
1308:Drivers/STM32F3xx_HAL_Driver/Src/stm32f3xx_hal_i2c.c ****   }
1309:Drivers/STM32F3xx_HAL_Driver/Src/stm32f3xx_hal_i2c.c ****   else
ARM GAS  /tmp/cccd70Af.s 			page 60


1310:Drivers/STM32F3xx_HAL_Driver/Src/stm32f3xx_hal_i2c.c ****   {
1311:Drivers/STM32F3xx_HAL_Driver/Src/stm32f3xx_hal_i2c.c ****     return HAL_BUSY; 
 2068              		.loc 1 1311 0
 2069 008c 0223     		movs	r3, #2
 2070              	.L101:
1312:Drivers/STM32F3xx_HAL_Driver/Src/stm32f3xx_hal_i2c.c ****   } 
1313:Drivers/STM32F3xx_HAL_Driver/Src/stm32f3xx_hal_i2c.c **** }
 2071              		.loc 1 1313 0
 2072 008e 1846     		mov	r0, r3
 2073 0090 1037     		adds	r7, r7, #16
 2074 0092 BD46     		mov	sp, r7
 2075              		@ sp needed
 2076 0094 80BD     		pop	{r7, pc}
 2077              	.L103:
 2078 0096 00BF     		.align	2
 2079              	.L102:
 2080 0098 0000FFFF 		.word	-65536
 2081 009c 00000000 		.word	I2C_Slave_ISR_IT
 2082              		.cfi_endproc
 2083              	.LFE135:
 2085              		.section	.text.HAL_I2C_Slave_Receive_IT,"ax",%progbits
 2086              		.align	2
 2087              		.global	HAL_I2C_Slave_Receive_IT
 2088              		.thumb
 2089              		.thumb_func
 2091              	HAL_I2C_Slave_Receive_IT:
 2092              	.LFB136:
1314:Drivers/STM32F3xx_HAL_Driver/Src/stm32f3xx_hal_i2c.c **** 
1315:Drivers/STM32F3xx_HAL_Driver/Src/stm32f3xx_hal_i2c.c **** /**
1316:Drivers/STM32F3xx_HAL_Driver/Src/stm32f3xx_hal_i2c.c ****   * @brief  Receive in slave mode an amount of data in non-blocking mode with Interrupt 
1317:Drivers/STM32F3xx_HAL_Driver/Src/stm32f3xx_hal_i2c.c ****   * @param  hi2c Pointer to a I2C_HandleTypeDef structure that contains
1318:Drivers/STM32F3xx_HAL_Driver/Src/stm32f3xx_hal_i2c.c ****   *                the configuration information for the specified I2C.
1319:Drivers/STM32F3xx_HAL_Driver/Src/stm32f3xx_hal_i2c.c ****   * @param  pData Pointer to data buffer
1320:Drivers/STM32F3xx_HAL_Driver/Src/stm32f3xx_hal_i2c.c ****   * @param  Size Amount of data to be sent
1321:Drivers/STM32F3xx_HAL_Driver/Src/stm32f3xx_hal_i2c.c ****   * @retval HAL status
1322:Drivers/STM32F3xx_HAL_Driver/Src/stm32f3xx_hal_i2c.c ****   */
1323:Drivers/STM32F3xx_HAL_Driver/Src/stm32f3xx_hal_i2c.c **** HAL_StatusTypeDef HAL_I2C_Slave_Receive_IT(I2C_HandleTypeDef *hi2c, uint8_t *pData, uint16_t Size)
1324:Drivers/STM32F3xx_HAL_Driver/Src/stm32f3xx_hal_i2c.c **** {
 2093              		.loc 1 1324 0
 2094              		.cfi_startproc
 2095              		@ args = 0, pretend = 0, frame = 16
 2096              		@ frame_needed = 1, uses_anonymous_args = 0
 2097 0000 80B5     		push	{r7, lr}
 2098              	.LCFI33:
 2099              		.cfi_def_cfa_offset 8
 2100              		.cfi_offset 7, -8
 2101              		.cfi_offset 14, -4
 2102 0002 84B0     		sub	sp, sp, #16
 2103              	.LCFI34:
 2104              		.cfi_def_cfa_offset 24
 2105 0004 00AF     		add	r7, sp, #0
 2106              	.LCFI35:
 2107              		.cfi_def_cfa_register 7
 2108 0006 F860     		str	r0, [r7, #12]
 2109 0008 B960     		str	r1, [r7, #8]
 2110 000a 1346     		mov	r3, r2
 2111 000c FB80     		strh	r3, [r7, #6]	@ movhi
ARM GAS  /tmp/cccd70Af.s 			page 61


1325:Drivers/STM32F3xx_HAL_Driver/Src/stm32f3xx_hal_i2c.c ****   if(hi2c->State == HAL_I2C_STATE_READY)
 2112              		.loc 1 1325 0
 2113 000e FB68     		ldr	r3, [r7, #12]
 2114 0010 93F84130 		ldrb	r3, [r3, #65]
 2115 0014 DBB2     		uxtb	r3, r3
 2116 0016 202B     		cmp	r3, #32
 2117 0018 38D1     		bne	.L105
1326:Drivers/STM32F3xx_HAL_Driver/Src/stm32f3xx_hal_i2c.c ****   {
1327:Drivers/STM32F3xx_HAL_Driver/Src/stm32f3xx_hal_i2c.c ****     /* Process Locked */
1328:Drivers/STM32F3xx_HAL_Driver/Src/stm32f3xx_hal_i2c.c ****     __HAL_LOCK(hi2c);
 2118              		.loc 1 1328 0
 2119 001a FB68     		ldr	r3, [r7, #12]
 2120 001c 93F84030 		ldrb	r3, [r3, #64]	@ zero_extendqisi2
 2121 0020 012B     		cmp	r3, #1
 2122 0022 01D1     		bne	.L106
 2123              		.loc 1 1328 0 is_stmt 0 discriminator 1
 2124 0024 0223     		movs	r3, #2
 2125 0026 32E0     		b	.L107
 2126              	.L106:
 2127              		.loc 1 1328 0 discriminator 2
 2128 0028 FB68     		ldr	r3, [r7, #12]
 2129 002a 0122     		movs	r2, #1
 2130 002c 83F84020 		strb	r2, [r3, #64]
1329:Drivers/STM32F3xx_HAL_Driver/Src/stm32f3xx_hal_i2c.c **** 
1330:Drivers/STM32F3xx_HAL_Driver/Src/stm32f3xx_hal_i2c.c ****     hi2c->State = HAL_I2C_STATE_BUSY_RX;
 2131              		.loc 1 1330 0 is_stmt 1 discriminator 2
 2132 0030 FB68     		ldr	r3, [r7, #12]
 2133 0032 2222     		movs	r2, #34
 2134 0034 83F84120 		strb	r2, [r3, #65]
1331:Drivers/STM32F3xx_HAL_Driver/Src/stm32f3xx_hal_i2c.c ****     hi2c->Mode = HAL_I2C_MODE_SLAVE;
 2135              		.loc 1 1331 0 discriminator 2
 2136 0038 FB68     		ldr	r3, [r7, #12]
 2137 003a 2022     		movs	r2, #32
 2138 003c 83F84220 		strb	r2, [r3, #66]
1332:Drivers/STM32F3xx_HAL_Driver/Src/stm32f3xx_hal_i2c.c ****     hi2c->ErrorCode   = HAL_I2C_ERROR_NONE;
 2139              		.loc 1 1332 0 discriminator 2
 2140 0040 FB68     		ldr	r3, [r7, #12]
 2141 0042 0022     		movs	r2, #0
 2142 0044 5A64     		str	r2, [r3, #68]
1333:Drivers/STM32F3xx_HAL_Driver/Src/stm32f3xx_hal_i2c.c **** 
1334:Drivers/STM32F3xx_HAL_Driver/Src/stm32f3xx_hal_i2c.c ****     /* Enable Address Acknowledge */
1335:Drivers/STM32F3xx_HAL_Driver/Src/stm32f3xx_hal_i2c.c ****     hi2c->Instance->CR2 &= ~I2C_CR2_NACK;
 2143              		.loc 1 1335 0 discriminator 2
 2144 0046 FB68     		ldr	r3, [r7, #12]
 2145 0048 1B68     		ldr	r3, [r3]
 2146 004a FA68     		ldr	r2, [r7, #12]
 2147 004c 1268     		ldr	r2, [r2]
 2148 004e 5268     		ldr	r2, [r2, #4]
 2149 0050 22F40042 		bic	r2, r2, #32768
 2150 0054 5A60     		str	r2, [r3, #4]
1336:Drivers/STM32F3xx_HAL_Driver/Src/stm32f3xx_hal_i2c.c **** 
1337:Drivers/STM32F3xx_HAL_Driver/Src/stm32f3xx_hal_i2c.c ****     /* Prepare transfer parameters */
1338:Drivers/STM32F3xx_HAL_Driver/Src/stm32f3xx_hal_i2c.c ****     hi2c->pBuffPtr = pData;
 2151              		.loc 1 1338 0 discriminator 2
 2152 0056 FB68     		ldr	r3, [r7, #12]
 2153 0058 BA68     		ldr	r2, [r7, #8]
 2154 005a 5A62     		str	r2, [r3, #36]
ARM GAS  /tmp/cccd70Af.s 			page 62


1339:Drivers/STM32F3xx_HAL_Driver/Src/stm32f3xx_hal_i2c.c ****     hi2c->XferCount = Size;
 2155              		.loc 1 1339 0 discriminator 2
 2156 005c FB68     		ldr	r3, [r7, #12]
 2157 005e FA88     		ldrh	r2, [r7, #6]	@ movhi
 2158 0060 5A85     		strh	r2, [r3, #42]	@ movhi
1340:Drivers/STM32F3xx_HAL_Driver/Src/stm32f3xx_hal_i2c.c ****     hi2c->XferSize    = hi2c->XferCount;
 2159              		.loc 1 1340 0 discriminator 2
 2160 0062 FB68     		ldr	r3, [r7, #12]
 2161 0064 5B8D     		ldrh	r3, [r3, #42]	@ movhi
 2162 0066 9AB2     		uxth	r2, r3
 2163 0068 FB68     		ldr	r3, [r7, #12]
 2164 006a 1A85     		strh	r2, [r3, #40]	@ movhi
1341:Drivers/STM32F3xx_HAL_Driver/Src/stm32f3xx_hal_i2c.c ****     hi2c->XferOptions = I2C_NO_OPTION_FRAME;
 2165              		.loc 1 1341 0 discriminator 2
 2166 006c FB68     		ldr	r3, [r7, #12]
 2167 006e 0A4A     		ldr	r2, .L108
 2168 0070 DA62     		str	r2, [r3, #44]
1342:Drivers/STM32F3xx_HAL_Driver/Src/stm32f3xx_hal_i2c.c ****     hi2c->XferISR     = I2C_Slave_ISR_IT;
 2169              		.loc 1 1342 0 discriminator 2
 2170 0072 FB68     		ldr	r3, [r7, #12]
 2171 0074 094A     		ldr	r2, .L108+4
 2172 0076 5A63     		str	r2, [r3, #52]
1343:Drivers/STM32F3xx_HAL_Driver/Src/stm32f3xx_hal_i2c.c **** 
1344:Drivers/STM32F3xx_HAL_Driver/Src/stm32f3xx_hal_i2c.c ****     /* Process Unlocked */
1345:Drivers/STM32F3xx_HAL_Driver/Src/stm32f3xx_hal_i2c.c ****     __HAL_UNLOCK(hi2c); 
 2173              		.loc 1 1345 0 discriminator 2
 2174 0078 FB68     		ldr	r3, [r7, #12]
 2175 007a 0022     		movs	r2, #0
 2176 007c 83F84020 		strb	r2, [r3, #64]
1346:Drivers/STM32F3xx_HAL_Driver/Src/stm32f3xx_hal_i2c.c **** 
1347:Drivers/STM32F3xx_HAL_Driver/Src/stm32f3xx_hal_i2c.c ****     /* Note : The I2C interrupts must be enabled after unlocking current process 
1348:Drivers/STM32F3xx_HAL_Driver/Src/stm32f3xx_hal_i2c.c ****               to avoid the risk of I2C interrupt handle execution before current
1349:Drivers/STM32F3xx_HAL_Driver/Src/stm32f3xx_hal_i2c.c ****               process unlock */
1350:Drivers/STM32F3xx_HAL_Driver/Src/stm32f3xx_hal_i2c.c **** 
1351:Drivers/STM32F3xx_HAL_Driver/Src/stm32f3xx_hal_i2c.c ****     /* Enable ERR, TC, STOP, NACK, RXI interrupt */
1352:Drivers/STM32F3xx_HAL_Driver/Src/stm32f3xx_hal_i2c.c ****     /* possible to enable all of these */
1353:Drivers/STM32F3xx_HAL_Driver/Src/stm32f3xx_hal_i2c.c ****     /* I2C_IT_ERRI | I2C_IT_TCI| I2C_IT_STOPI| I2C_IT_NACKI | I2C_IT_ADDRI | I2C_IT_RXI | I2C_IT_TX
1354:Drivers/STM32F3xx_HAL_Driver/Src/stm32f3xx_hal_i2c.c ****     I2C_Enable_IRQ(hi2c, I2C_XFER_RX_IT | I2C_XFER_LISTEN_IT);
 2177              		.loc 1 1354 0 discriminator 2
 2178 0080 F868     		ldr	r0, [r7, #12]
 2179 0082 0621     		movs	r1, #6
 2180 0084 FFF7FEFF 		bl	I2C_Enable_IRQ
1355:Drivers/STM32F3xx_HAL_Driver/Src/stm32f3xx_hal_i2c.c ****     
1356:Drivers/STM32F3xx_HAL_Driver/Src/stm32f3xx_hal_i2c.c ****     return HAL_OK;
 2181              		.loc 1 1356 0 discriminator 2
 2182 0088 0023     		movs	r3, #0
 2183 008a 00E0     		b	.L107
 2184              	.L105:
1357:Drivers/STM32F3xx_HAL_Driver/Src/stm32f3xx_hal_i2c.c ****   }
1358:Drivers/STM32F3xx_HAL_Driver/Src/stm32f3xx_hal_i2c.c ****   else
1359:Drivers/STM32F3xx_HAL_Driver/Src/stm32f3xx_hal_i2c.c ****   {
1360:Drivers/STM32F3xx_HAL_Driver/Src/stm32f3xx_hal_i2c.c ****     return HAL_BUSY; 
 2185              		.loc 1 1360 0
 2186 008c 0223     		movs	r3, #2
 2187              	.L107:
1361:Drivers/STM32F3xx_HAL_Driver/Src/stm32f3xx_hal_i2c.c ****   }
1362:Drivers/STM32F3xx_HAL_Driver/Src/stm32f3xx_hal_i2c.c **** }
ARM GAS  /tmp/cccd70Af.s 			page 63


 2188              		.loc 1 1362 0
 2189 008e 1846     		mov	r0, r3
 2190 0090 1037     		adds	r7, r7, #16
 2191 0092 BD46     		mov	sp, r7
 2192              		@ sp needed
 2193 0094 80BD     		pop	{r7, pc}
 2194              	.L109:
 2195 0096 00BF     		.align	2
 2196              	.L108:
 2197 0098 0000FFFF 		.word	-65536
 2198 009c 00000000 		.word	I2C_Slave_ISR_IT
 2199              		.cfi_endproc
 2200              	.LFE136:
 2202              		.section	.text.HAL_I2C_Master_Transmit_DMA,"ax",%progbits
 2203              		.align	2
 2204              		.global	HAL_I2C_Master_Transmit_DMA
 2205              		.thumb
 2206              		.thumb_func
 2208              	HAL_I2C_Master_Transmit_DMA:
 2209              	.LFB137:
1363:Drivers/STM32F3xx_HAL_Driver/Src/stm32f3xx_hal_i2c.c **** 
1364:Drivers/STM32F3xx_HAL_Driver/Src/stm32f3xx_hal_i2c.c **** /**
1365:Drivers/STM32F3xx_HAL_Driver/Src/stm32f3xx_hal_i2c.c ****   * @brief  Transmit in master mode an amount of data in non-blocking mode with DMA
1366:Drivers/STM32F3xx_HAL_Driver/Src/stm32f3xx_hal_i2c.c ****   * @param  hi2c Pointer to a I2C_HandleTypeDef structure that contains
1367:Drivers/STM32F3xx_HAL_Driver/Src/stm32f3xx_hal_i2c.c ****   *                the configuration information for the specified I2C.
1368:Drivers/STM32F3xx_HAL_Driver/Src/stm32f3xx_hal_i2c.c ****   * @param  DevAddress Target device address
1369:Drivers/STM32F3xx_HAL_Driver/Src/stm32f3xx_hal_i2c.c ****   * @param  pData Pointer to data buffer
1370:Drivers/STM32F3xx_HAL_Driver/Src/stm32f3xx_hal_i2c.c ****   * @param  Size Amount of data to be sent
1371:Drivers/STM32F3xx_HAL_Driver/Src/stm32f3xx_hal_i2c.c ****   * @retval HAL status
1372:Drivers/STM32F3xx_HAL_Driver/Src/stm32f3xx_hal_i2c.c ****   */
1373:Drivers/STM32F3xx_HAL_Driver/Src/stm32f3xx_hal_i2c.c **** HAL_StatusTypeDef HAL_I2C_Master_Transmit_DMA(I2C_HandleTypeDef *hi2c, uint16_t DevAddress, uint8_t
1374:Drivers/STM32F3xx_HAL_Driver/Src/stm32f3xx_hal_i2c.c **** {
 2210              		.loc 1 1374 0
 2211              		.cfi_startproc
 2212              		@ args = 0, pretend = 0, frame = 24
 2213              		@ frame_needed = 1, uses_anonymous_args = 0
 2214 0000 80B5     		push	{r7, lr}
 2215              	.LCFI36:
 2216              		.cfi_def_cfa_offset 8
 2217              		.cfi_offset 7, -8
 2218              		.cfi_offset 14, -4
 2219 0002 88B0     		sub	sp, sp, #32
 2220              	.LCFI37:
 2221              		.cfi_def_cfa_offset 40
 2222 0004 02AF     		add	r7, sp, #8
 2223              	.LCFI38:
 2224              		.cfi_def_cfa 7, 32
 2225 0006 F860     		str	r0, [r7, #12]
 2226 0008 7A60     		str	r2, [r7, #4]
 2227 000a 0A46     		mov	r2, r1	@ movhi
 2228 000c 7A81     		strh	r2, [r7, #10]	@ movhi
 2229 000e 3B81     		strh	r3, [r7, #8]	@ movhi
1375:Drivers/STM32F3xx_HAL_Driver/Src/stm32f3xx_hal_i2c.c ****   uint32_t xfermode = 0U;
 2230              		.loc 1 1375 0
 2231 0010 0023     		movs	r3, #0
 2232 0012 7B61     		str	r3, [r7, #20]
1376:Drivers/STM32F3xx_HAL_Driver/Src/stm32f3xx_hal_i2c.c **** 
ARM GAS  /tmp/cccd70Af.s 			page 64


1377:Drivers/STM32F3xx_HAL_Driver/Src/stm32f3xx_hal_i2c.c ****   if(hi2c->State == HAL_I2C_STATE_READY)
 2233              		.loc 1 1377 0
 2234 0014 FB68     		ldr	r3, [r7, #12]
 2235 0016 93F84130 		ldrb	r3, [r3, #65]
 2236 001a DBB2     		uxtb	r3, r3
 2237 001c 202B     		cmp	r3, #32
 2238 001e 40F0A080 		bne	.L111
1378:Drivers/STM32F3xx_HAL_Driver/Src/stm32f3xx_hal_i2c.c ****   {
1379:Drivers/STM32F3xx_HAL_Driver/Src/stm32f3xx_hal_i2c.c ****     if(__HAL_I2C_GET_FLAG(hi2c, I2C_FLAG_BUSY) == SET)
 2239              		.loc 1 1379 0
 2240 0022 FB68     		ldr	r3, [r7, #12]
 2241 0024 1B68     		ldr	r3, [r3]
 2242 0026 9B69     		ldr	r3, [r3, #24]
 2243 0028 03F40043 		and	r3, r3, #32768
 2244 002c 002B     		cmp	r3, #0
 2245 002e 01D0     		beq	.L112
1380:Drivers/STM32F3xx_HAL_Driver/Src/stm32f3xx_hal_i2c.c ****     {
1381:Drivers/STM32F3xx_HAL_Driver/Src/stm32f3xx_hal_i2c.c ****       return HAL_BUSY;
 2246              		.loc 1 1381 0
 2247 0030 0223     		movs	r3, #2
 2248 0032 97E0     		b	.L113
 2249              	.L112:
1382:Drivers/STM32F3xx_HAL_Driver/Src/stm32f3xx_hal_i2c.c ****     }
1383:Drivers/STM32F3xx_HAL_Driver/Src/stm32f3xx_hal_i2c.c **** 
1384:Drivers/STM32F3xx_HAL_Driver/Src/stm32f3xx_hal_i2c.c ****     /* Process Locked */
1385:Drivers/STM32F3xx_HAL_Driver/Src/stm32f3xx_hal_i2c.c ****     __HAL_LOCK(hi2c);
 2250              		.loc 1 1385 0
 2251 0034 FB68     		ldr	r3, [r7, #12]
 2252 0036 93F84030 		ldrb	r3, [r3, #64]	@ zero_extendqisi2
 2253 003a 012B     		cmp	r3, #1
 2254 003c 01D1     		bne	.L114
 2255              		.loc 1 1385 0 is_stmt 0 discriminator 1
 2256 003e 0223     		movs	r3, #2
 2257 0040 90E0     		b	.L113
 2258              	.L114:
 2259              		.loc 1 1385 0 discriminator 2
 2260 0042 FB68     		ldr	r3, [r7, #12]
 2261 0044 0122     		movs	r2, #1
 2262 0046 83F84020 		strb	r2, [r3, #64]
1386:Drivers/STM32F3xx_HAL_Driver/Src/stm32f3xx_hal_i2c.c **** 
1387:Drivers/STM32F3xx_HAL_Driver/Src/stm32f3xx_hal_i2c.c ****     hi2c->State = HAL_I2C_STATE_BUSY_TX;
 2263              		.loc 1 1387 0 is_stmt 1 discriminator 2
 2264 004a FB68     		ldr	r3, [r7, #12]
 2265 004c 2122     		movs	r2, #33
 2266 004e 83F84120 		strb	r2, [r3, #65]
1388:Drivers/STM32F3xx_HAL_Driver/Src/stm32f3xx_hal_i2c.c ****     hi2c->Mode = HAL_I2C_MODE_MASTER;
 2267              		.loc 1 1388 0 discriminator 2
 2268 0052 FB68     		ldr	r3, [r7, #12]
 2269 0054 1022     		movs	r2, #16
 2270 0056 83F84220 		strb	r2, [r3, #66]
1389:Drivers/STM32F3xx_HAL_Driver/Src/stm32f3xx_hal_i2c.c ****     hi2c->ErrorCode   = HAL_I2C_ERROR_NONE;
 2271              		.loc 1 1389 0 discriminator 2
 2272 005a FB68     		ldr	r3, [r7, #12]
 2273 005c 0022     		movs	r2, #0
 2274 005e 5A64     		str	r2, [r3, #68]
1390:Drivers/STM32F3xx_HAL_Driver/Src/stm32f3xx_hal_i2c.c **** 
1391:Drivers/STM32F3xx_HAL_Driver/Src/stm32f3xx_hal_i2c.c ****     /* Prepare transfer parameters */
ARM GAS  /tmp/cccd70Af.s 			page 65


1392:Drivers/STM32F3xx_HAL_Driver/Src/stm32f3xx_hal_i2c.c ****     hi2c->pBuffPtr = pData;
 2275              		.loc 1 1392 0 discriminator 2
 2276 0060 FB68     		ldr	r3, [r7, #12]
 2277 0062 7A68     		ldr	r2, [r7, #4]
 2278 0064 5A62     		str	r2, [r3, #36]
1393:Drivers/STM32F3xx_HAL_Driver/Src/stm32f3xx_hal_i2c.c ****     hi2c->XferCount = Size;
 2279              		.loc 1 1393 0 discriminator 2
 2280 0066 FB68     		ldr	r3, [r7, #12]
 2281 0068 3A89     		ldrh	r2, [r7, #8]	@ movhi
 2282 006a 5A85     		strh	r2, [r3, #42]	@ movhi
1394:Drivers/STM32F3xx_HAL_Driver/Src/stm32f3xx_hal_i2c.c ****     hi2c->XferOptions = I2C_NO_OPTION_FRAME;
 2283              		.loc 1 1394 0 discriminator 2
 2284 006c FB68     		ldr	r3, [r7, #12]
 2285 006e 3F4A     		ldr	r2, .L119
 2286 0070 DA62     		str	r2, [r3, #44]
1395:Drivers/STM32F3xx_HAL_Driver/Src/stm32f3xx_hal_i2c.c ****     hi2c->XferISR     = I2C_Master_ISR_DMA;
 2287              		.loc 1 1395 0 discriminator 2
 2288 0072 FB68     		ldr	r3, [r7, #12]
 2289 0074 3E4A     		ldr	r2, .L119+4
 2290 0076 5A63     		str	r2, [r3, #52]
1396:Drivers/STM32F3xx_HAL_Driver/Src/stm32f3xx_hal_i2c.c ****     
1397:Drivers/STM32F3xx_HAL_Driver/Src/stm32f3xx_hal_i2c.c ****     if(hi2c->XferCount > MAX_NBYTE_SIZE)
 2291              		.loc 1 1397 0 discriminator 2
 2292 0078 FB68     		ldr	r3, [r7, #12]
 2293 007a 5B8D     		ldrh	r3, [r3, #42]	@ movhi
 2294 007c 9BB2     		uxth	r3, r3
 2295 007e FF2B     		cmp	r3, #255
 2296 0080 06D9     		bls	.L115
1398:Drivers/STM32F3xx_HAL_Driver/Src/stm32f3xx_hal_i2c.c ****     {
1399:Drivers/STM32F3xx_HAL_Driver/Src/stm32f3xx_hal_i2c.c ****       hi2c->XferSize = MAX_NBYTE_SIZE;
 2297              		.loc 1 1399 0
 2298 0082 FB68     		ldr	r3, [r7, #12]
 2299 0084 FF22     		movs	r2, #255
 2300 0086 1A85     		strh	r2, [r3, #40]	@ movhi
1400:Drivers/STM32F3xx_HAL_Driver/Src/stm32f3xx_hal_i2c.c ****       xfermode = I2C_RELOAD_MODE;
 2301              		.loc 1 1400 0
 2302 0088 4FF08073 		mov	r3, #16777216
 2303 008c 7B61     		str	r3, [r7, #20]
 2304 008e 07E0     		b	.L116
 2305              	.L115:
1401:Drivers/STM32F3xx_HAL_Driver/Src/stm32f3xx_hal_i2c.c ****     }
1402:Drivers/STM32F3xx_HAL_Driver/Src/stm32f3xx_hal_i2c.c ****     else
1403:Drivers/STM32F3xx_HAL_Driver/Src/stm32f3xx_hal_i2c.c ****     {
1404:Drivers/STM32F3xx_HAL_Driver/Src/stm32f3xx_hal_i2c.c ****       hi2c->XferSize = hi2c->XferCount;
 2306              		.loc 1 1404 0
 2307 0090 FB68     		ldr	r3, [r7, #12]
 2308 0092 5B8D     		ldrh	r3, [r3, #42]	@ movhi
 2309 0094 9AB2     		uxth	r2, r3
 2310 0096 FB68     		ldr	r3, [r7, #12]
 2311 0098 1A85     		strh	r2, [r3, #40]	@ movhi
1405:Drivers/STM32F3xx_HAL_Driver/Src/stm32f3xx_hal_i2c.c ****       xfermode = I2C_AUTOEND_MODE;
 2312              		.loc 1 1405 0
 2313 009a 4FF00073 		mov	r3, #33554432
 2314 009e 7B61     		str	r3, [r7, #20]
 2315              	.L116:
1406:Drivers/STM32F3xx_HAL_Driver/Src/stm32f3xx_hal_i2c.c ****     }
1407:Drivers/STM32F3xx_HAL_Driver/Src/stm32f3xx_hal_i2c.c **** 
ARM GAS  /tmp/cccd70Af.s 			page 66


1408:Drivers/STM32F3xx_HAL_Driver/Src/stm32f3xx_hal_i2c.c ****     if(hi2c->XferSize > 0U)
 2316              		.loc 1 1408 0
 2317 00a0 FB68     		ldr	r3, [r7, #12]
 2318 00a2 1B8D     		ldrh	r3, [r3, #40]
 2319 00a4 002B     		cmp	r3, #0
 2320 00a6 41D0     		beq	.L117
1409:Drivers/STM32F3xx_HAL_Driver/Src/stm32f3xx_hal_i2c.c ****     {
1410:Drivers/STM32F3xx_HAL_Driver/Src/stm32f3xx_hal_i2c.c ****       /* Set the I2C DMA transfer complete callback */
1411:Drivers/STM32F3xx_HAL_Driver/Src/stm32f3xx_hal_i2c.c ****       hi2c->hdmatx->XferCpltCallback = I2C_DMAMasterTransmitCplt;
 2321              		.loc 1 1411 0
 2322 00a8 FB68     		ldr	r3, [r7, #12]
 2323 00aa 9B6B     		ldr	r3, [r3, #56]
 2324 00ac 314A     		ldr	r2, .L119+8
 2325 00ae 9A62     		str	r2, [r3, #40]
1412:Drivers/STM32F3xx_HAL_Driver/Src/stm32f3xx_hal_i2c.c **** 
1413:Drivers/STM32F3xx_HAL_Driver/Src/stm32f3xx_hal_i2c.c ****       /* Set the DMA error callback */
1414:Drivers/STM32F3xx_HAL_Driver/Src/stm32f3xx_hal_i2c.c ****       hi2c->hdmatx->XferErrorCallback = I2C_DMAError;
 2326              		.loc 1 1414 0
 2327 00b0 FB68     		ldr	r3, [r7, #12]
 2328 00b2 9B6B     		ldr	r3, [r3, #56]
 2329 00b4 304A     		ldr	r2, .L119+12
 2330 00b6 1A63     		str	r2, [r3, #48]
1415:Drivers/STM32F3xx_HAL_Driver/Src/stm32f3xx_hal_i2c.c **** 
1416:Drivers/STM32F3xx_HAL_Driver/Src/stm32f3xx_hal_i2c.c ****       /* Set the unused DMA callbacks to NULL */
1417:Drivers/STM32F3xx_HAL_Driver/Src/stm32f3xx_hal_i2c.c ****       hi2c->hdmatx->XferHalfCpltCallback = NULL;
 2331              		.loc 1 1417 0
 2332 00b8 FB68     		ldr	r3, [r7, #12]
 2333 00ba 9B6B     		ldr	r3, [r3, #56]
 2334 00bc 0022     		movs	r2, #0
 2335 00be DA62     		str	r2, [r3, #44]
1418:Drivers/STM32F3xx_HAL_Driver/Src/stm32f3xx_hal_i2c.c ****       hi2c->hdmatx->XferAbortCallback = NULL;
 2336              		.loc 1 1418 0
 2337 00c0 FB68     		ldr	r3, [r7, #12]
 2338 00c2 9B6B     		ldr	r3, [r3, #56]
 2339 00c4 0022     		movs	r2, #0
 2340 00c6 5A63     		str	r2, [r3, #52]
1419:Drivers/STM32F3xx_HAL_Driver/Src/stm32f3xx_hal_i2c.c **** 
1420:Drivers/STM32F3xx_HAL_Driver/Src/stm32f3xx_hal_i2c.c ****       /* Enable the DMA channel */
1421:Drivers/STM32F3xx_HAL_Driver/Src/stm32f3xx_hal_i2c.c ****       HAL_DMA_Start_IT(hi2c->hdmatx, (uint32_t)pData, (uint32_t)&hi2c->Instance->TXDR, hi2c->XferSi
 2341              		.loc 1 1421 0
 2342 00c8 FB68     		ldr	r3, [r7, #12]
 2343 00ca 986B     		ldr	r0, [r3, #56]
 2344 00cc 7968     		ldr	r1, [r7, #4]
 2345 00ce FB68     		ldr	r3, [r7, #12]
 2346 00d0 1B68     		ldr	r3, [r3]
 2347 00d2 2833     		adds	r3, r3, #40
 2348 00d4 1A46     		mov	r2, r3
 2349 00d6 FB68     		ldr	r3, [r7, #12]
 2350 00d8 1B8D     		ldrh	r3, [r3, #40]
 2351 00da FFF7FEFF 		bl	HAL_DMA_Start_IT
1422:Drivers/STM32F3xx_HAL_Driver/Src/stm32f3xx_hal_i2c.c **** 
1423:Drivers/STM32F3xx_HAL_Driver/Src/stm32f3xx_hal_i2c.c ****       /* Send Slave Address */
1424:Drivers/STM32F3xx_HAL_Driver/Src/stm32f3xx_hal_i2c.c ****       /* Set NBYTES to write and reload if hi2c->XferCount > MAX_NBYTE_SIZE and generate RESTART */
1425:Drivers/STM32F3xx_HAL_Driver/Src/stm32f3xx_hal_i2c.c ****       I2C_TransferConfig(hi2c, DevAddress, hi2c->XferSize, xfermode, I2C_GENERATE_START_WRITE);
 2352              		.loc 1 1425 0
 2353 00de FB68     		ldr	r3, [r7, #12]
 2354 00e0 1B8D     		ldrh	r3, [r3, #40]
ARM GAS  /tmp/cccd70Af.s 			page 67


 2355 00e2 DBB2     		uxtb	r3, r3
 2356 00e4 7A89     		ldrh	r2, [r7, #10]
 2357 00e6 4FF40051 		mov	r1, #8192
 2358 00ea 0091     		str	r1, [sp]
 2359 00ec F868     		ldr	r0, [r7, #12]
 2360 00ee 1146     		mov	r1, r2
 2361 00f0 1A46     		mov	r2, r3
 2362 00f2 7B69     		ldr	r3, [r7, #20]
 2363 00f4 FFF7FEFF 		bl	I2C_TransferConfig
1426:Drivers/STM32F3xx_HAL_Driver/Src/stm32f3xx_hal_i2c.c **** 
1427:Drivers/STM32F3xx_HAL_Driver/Src/stm32f3xx_hal_i2c.c ****       /* Update XferCount value */
1428:Drivers/STM32F3xx_HAL_Driver/Src/stm32f3xx_hal_i2c.c ****       hi2c->XferCount -= hi2c->XferSize;
 2364              		.loc 1 1428 0
 2365 00f8 FB68     		ldr	r3, [r7, #12]
 2366 00fa 5B8D     		ldrh	r3, [r3, #42]	@ movhi
 2367 00fc 9AB2     		uxth	r2, r3
 2368 00fe FB68     		ldr	r3, [r7, #12]
 2369 0100 1B8D     		ldrh	r3, [r3, #40]
 2370 0102 D31A     		subs	r3, r2, r3
 2371 0104 9AB2     		uxth	r2, r3
 2372 0106 FB68     		ldr	r3, [r7, #12]
 2373 0108 5A85     		strh	r2, [r3, #42]	@ movhi
1429:Drivers/STM32F3xx_HAL_Driver/Src/stm32f3xx_hal_i2c.c **** 
1430:Drivers/STM32F3xx_HAL_Driver/Src/stm32f3xx_hal_i2c.c ****       /* Process Unlocked */
1431:Drivers/STM32F3xx_HAL_Driver/Src/stm32f3xx_hal_i2c.c ****       __HAL_UNLOCK(hi2c);
 2374              		.loc 1 1431 0
 2375 010a FB68     		ldr	r3, [r7, #12]
 2376 010c 0022     		movs	r2, #0
 2377 010e 83F84020 		strb	r2, [r3, #64]
1432:Drivers/STM32F3xx_HAL_Driver/Src/stm32f3xx_hal_i2c.c **** 
1433:Drivers/STM32F3xx_HAL_Driver/Src/stm32f3xx_hal_i2c.c ****       /* Note : The I2C interrupts must be enabled after unlocking current process
1434:Drivers/STM32F3xx_HAL_Driver/Src/stm32f3xx_hal_i2c.c ****                 to avoid the risk of I2C interrupt handle execution before current
1435:Drivers/STM32F3xx_HAL_Driver/Src/stm32f3xx_hal_i2c.c ****                 process unlock */
1436:Drivers/STM32F3xx_HAL_Driver/Src/stm32f3xx_hal_i2c.c ****       /* Enable ERR and NACK interrupts */
1437:Drivers/STM32F3xx_HAL_Driver/Src/stm32f3xx_hal_i2c.c ****       I2C_Enable_IRQ(hi2c, I2C_XFER_ERROR_IT);
 2378              		.loc 1 1437 0
 2379 0112 F868     		ldr	r0, [r7, #12]
 2380 0114 1121     		movs	r1, #17
 2381 0116 FFF7FEFF 		bl	I2C_Enable_IRQ
1438:Drivers/STM32F3xx_HAL_Driver/Src/stm32f3xx_hal_i2c.c **** 
1439:Drivers/STM32F3xx_HAL_Driver/Src/stm32f3xx_hal_i2c.c ****       /* Enable DMA Request */
1440:Drivers/STM32F3xx_HAL_Driver/Src/stm32f3xx_hal_i2c.c ****       hi2c->Instance->CR1 |= I2C_CR1_TXDMAEN;
 2382              		.loc 1 1440 0
 2383 011a FB68     		ldr	r3, [r7, #12]
 2384 011c 1B68     		ldr	r3, [r3]
 2385 011e FA68     		ldr	r2, [r7, #12]
 2386 0120 1268     		ldr	r2, [r2]
 2387 0122 1268     		ldr	r2, [r2]
 2388 0124 42F48042 		orr	r2, r2, #16384
 2389 0128 1A60     		str	r2, [r3]
 2390 012a 18E0     		b	.L118
 2391              	.L117:
1441:Drivers/STM32F3xx_HAL_Driver/Src/stm32f3xx_hal_i2c.c ****     }
1442:Drivers/STM32F3xx_HAL_Driver/Src/stm32f3xx_hal_i2c.c ****     else
1443:Drivers/STM32F3xx_HAL_Driver/Src/stm32f3xx_hal_i2c.c ****     {
1444:Drivers/STM32F3xx_HAL_Driver/Src/stm32f3xx_hal_i2c.c ****       /* Update Transfer ISR function pointer */
1445:Drivers/STM32F3xx_HAL_Driver/Src/stm32f3xx_hal_i2c.c ****       hi2c->XferISR = I2C_Master_ISR_IT;
ARM GAS  /tmp/cccd70Af.s 			page 68


 2392              		.loc 1 1445 0
 2393 012c FB68     		ldr	r3, [r7, #12]
 2394 012e 134A     		ldr	r2, .L119+16
 2395 0130 5A63     		str	r2, [r3, #52]
1446:Drivers/STM32F3xx_HAL_Driver/Src/stm32f3xx_hal_i2c.c ****       
1447:Drivers/STM32F3xx_HAL_Driver/Src/stm32f3xx_hal_i2c.c ****       /* Send Slave Address */
1448:Drivers/STM32F3xx_HAL_Driver/Src/stm32f3xx_hal_i2c.c ****       /* Set NBYTES to write and generate START condition */
1449:Drivers/STM32F3xx_HAL_Driver/Src/stm32f3xx_hal_i2c.c ****       I2C_TransferConfig(hi2c, DevAddress, hi2c->XferSize, I2C_AUTOEND_MODE, I2C_GENERATE_START_WRI
 2396              		.loc 1 1449 0
 2397 0132 FB68     		ldr	r3, [r7, #12]
 2398 0134 1B8D     		ldrh	r3, [r3, #40]
 2399 0136 DBB2     		uxtb	r3, r3
 2400 0138 7A89     		ldrh	r2, [r7, #10]
 2401 013a 4FF40051 		mov	r1, #8192
 2402 013e 0091     		str	r1, [sp]
 2403 0140 F868     		ldr	r0, [r7, #12]
 2404 0142 1146     		mov	r1, r2
 2405 0144 1A46     		mov	r2, r3
 2406 0146 4FF00073 		mov	r3, #33554432
 2407 014a FFF7FEFF 		bl	I2C_TransferConfig
1450:Drivers/STM32F3xx_HAL_Driver/Src/stm32f3xx_hal_i2c.c **** 
1451:Drivers/STM32F3xx_HAL_Driver/Src/stm32f3xx_hal_i2c.c ****       /* Process Unlocked */
1452:Drivers/STM32F3xx_HAL_Driver/Src/stm32f3xx_hal_i2c.c ****       __HAL_UNLOCK(hi2c);
 2408              		.loc 1 1452 0
 2409 014e FB68     		ldr	r3, [r7, #12]
 2410 0150 0022     		movs	r2, #0
 2411 0152 83F84020 		strb	r2, [r3, #64]
1453:Drivers/STM32F3xx_HAL_Driver/Src/stm32f3xx_hal_i2c.c **** 
1454:Drivers/STM32F3xx_HAL_Driver/Src/stm32f3xx_hal_i2c.c ****       /* Note : The I2C interrupts must be enabled after unlocking current process
1455:Drivers/STM32F3xx_HAL_Driver/Src/stm32f3xx_hal_i2c.c ****                 to avoid the risk of I2C interrupt handle execution before current
1456:Drivers/STM32F3xx_HAL_Driver/Src/stm32f3xx_hal_i2c.c ****                 process unlock */
1457:Drivers/STM32F3xx_HAL_Driver/Src/stm32f3xx_hal_i2c.c ****       /* Enable ERR, TC, STOP, NACK, TXI interrupt */
1458:Drivers/STM32F3xx_HAL_Driver/Src/stm32f3xx_hal_i2c.c ****       /* possible to enable all of these */
1459:Drivers/STM32F3xx_HAL_Driver/Src/stm32f3xx_hal_i2c.c ****       /* I2C_IT_ERRI | I2C_IT_TCI| I2C_IT_STOPI| I2C_IT_NACKI | I2C_IT_ADDRI | I2C_IT_RXI | I2C_IT_
1460:Drivers/STM32F3xx_HAL_Driver/Src/stm32f3xx_hal_i2c.c ****       I2C_Enable_IRQ(hi2c, I2C_XFER_TX_IT);
 2412              		.loc 1 1460 0
 2413 0156 F868     		ldr	r0, [r7, #12]
 2414 0158 0121     		movs	r1, #1
 2415 015a FFF7FEFF 		bl	I2C_Enable_IRQ
 2416              	.L118:
1461:Drivers/STM32F3xx_HAL_Driver/Src/stm32f3xx_hal_i2c.c ****     }
1462:Drivers/STM32F3xx_HAL_Driver/Src/stm32f3xx_hal_i2c.c **** 
1463:Drivers/STM32F3xx_HAL_Driver/Src/stm32f3xx_hal_i2c.c ****     return HAL_OK;
 2417              		.loc 1 1463 0
 2418 015e 0023     		movs	r3, #0
 2419 0160 00E0     		b	.L113
 2420              	.L111:
1464:Drivers/STM32F3xx_HAL_Driver/Src/stm32f3xx_hal_i2c.c ****   }
1465:Drivers/STM32F3xx_HAL_Driver/Src/stm32f3xx_hal_i2c.c ****   else
1466:Drivers/STM32F3xx_HAL_Driver/Src/stm32f3xx_hal_i2c.c ****   {
1467:Drivers/STM32F3xx_HAL_Driver/Src/stm32f3xx_hal_i2c.c ****     return HAL_BUSY;
 2421              		.loc 1 1467 0
 2422 0162 0223     		movs	r3, #2
 2423              	.L113:
1468:Drivers/STM32F3xx_HAL_Driver/Src/stm32f3xx_hal_i2c.c ****   }
1469:Drivers/STM32F3xx_HAL_Driver/Src/stm32f3xx_hal_i2c.c **** }
 2424              		.loc 1 1469 0
ARM GAS  /tmp/cccd70Af.s 			page 69


 2425 0164 1846     		mov	r0, r3
 2426 0166 1837     		adds	r7, r7, #24
 2427 0168 BD46     		mov	sp, r7
 2428              		@ sp needed
 2429 016a 80BD     		pop	{r7, pc}
 2430              	.L120:
 2431              		.align	2
 2432              	.L119:
 2433 016c 0000FFFF 		.word	-65536
 2434 0170 00000000 		.word	I2C_Master_ISR_DMA
 2435 0174 00000000 		.word	I2C_DMAMasterTransmitCplt
 2436 0178 00000000 		.word	I2C_DMAError
 2437 017c 00000000 		.word	I2C_Master_ISR_IT
 2438              		.cfi_endproc
 2439              	.LFE137:
 2441              		.section	.text.HAL_I2C_Master_Receive_DMA,"ax",%progbits
 2442              		.align	2
 2443              		.global	HAL_I2C_Master_Receive_DMA
 2444              		.thumb
 2445              		.thumb_func
 2447              	HAL_I2C_Master_Receive_DMA:
 2448              	.LFB138:
1470:Drivers/STM32F3xx_HAL_Driver/Src/stm32f3xx_hal_i2c.c **** 
1471:Drivers/STM32F3xx_HAL_Driver/Src/stm32f3xx_hal_i2c.c **** /**
1472:Drivers/STM32F3xx_HAL_Driver/Src/stm32f3xx_hal_i2c.c ****   * @brief  Receive in master mode an amount of data in non-blocking mode with DMA 
1473:Drivers/STM32F3xx_HAL_Driver/Src/stm32f3xx_hal_i2c.c ****   * @param  hi2c Pointer to a I2C_HandleTypeDef structure that contains
1474:Drivers/STM32F3xx_HAL_Driver/Src/stm32f3xx_hal_i2c.c ****   *                the configuration information for the specified I2C.
1475:Drivers/STM32F3xx_HAL_Driver/Src/stm32f3xx_hal_i2c.c ****   * @param  DevAddress Target device address
1476:Drivers/STM32F3xx_HAL_Driver/Src/stm32f3xx_hal_i2c.c ****   * @param  pData Pointer to data buffer
1477:Drivers/STM32F3xx_HAL_Driver/Src/stm32f3xx_hal_i2c.c ****   * @param  Size Amount of data to be sent
1478:Drivers/STM32F3xx_HAL_Driver/Src/stm32f3xx_hal_i2c.c ****   * @retval HAL status
1479:Drivers/STM32F3xx_HAL_Driver/Src/stm32f3xx_hal_i2c.c ****   */
1480:Drivers/STM32F3xx_HAL_Driver/Src/stm32f3xx_hal_i2c.c **** HAL_StatusTypeDef HAL_I2C_Master_Receive_DMA(I2C_HandleTypeDef *hi2c, uint16_t DevAddress, uint8_t 
1481:Drivers/STM32F3xx_HAL_Driver/Src/stm32f3xx_hal_i2c.c **** {
 2449              		.loc 1 1481 0
 2450              		.cfi_startproc
 2451              		@ args = 0, pretend = 0, frame = 24
 2452              		@ frame_needed = 1, uses_anonymous_args = 0
 2453 0000 80B5     		push	{r7, lr}
 2454              	.LCFI39:
 2455              		.cfi_def_cfa_offset 8
 2456              		.cfi_offset 7, -8
 2457              		.cfi_offset 14, -4
 2458 0002 88B0     		sub	sp, sp, #32
 2459              	.LCFI40:
 2460              		.cfi_def_cfa_offset 40
 2461 0004 02AF     		add	r7, sp, #8
 2462              	.LCFI41:
 2463              		.cfi_def_cfa 7, 32
 2464 0006 F860     		str	r0, [r7, #12]
 2465 0008 7A60     		str	r2, [r7, #4]
 2466 000a 0A46     		mov	r2, r1	@ movhi
 2467 000c 7A81     		strh	r2, [r7, #10]	@ movhi
 2468 000e 3B81     		strh	r3, [r7, #8]	@ movhi
1482:Drivers/STM32F3xx_HAL_Driver/Src/stm32f3xx_hal_i2c.c ****   uint32_t xfermode = 0U;
 2469              		.loc 1 1482 0
 2470 0010 0023     		movs	r3, #0
ARM GAS  /tmp/cccd70Af.s 			page 70


 2471 0012 7B61     		str	r3, [r7, #20]
1483:Drivers/STM32F3xx_HAL_Driver/Src/stm32f3xx_hal_i2c.c **** 
1484:Drivers/STM32F3xx_HAL_Driver/Src/stm32f3xx_hal_i2c.c ****   if(hi2c->State == HAL_I2C_STATE_READY)
 2472              		.loc 1 1484 0
 2473 0014 FB68     		ldr	r3, [r7, #12]
 2474 0016 93F84130 		ldrb	r3, [r3, #65]
 2475 001a DBB2     		uxtb	r3, r3
 2476 001c 202B     		cmp	r3, #32
 2477 001e 40F0A080 		bne	.L122
1485:Drivers/STM32F3xx_HAL_Driver/Src/stm32f3xx_hal_i2c.c ****   {
1486:Drivers/STM32F3xx_HAL_Driver/Src/stm32f3xx_hal_i2c.c ****     if(__HAL_I2C_GET_FLAG(hi2c, I2C_FLAG_BUSY) == SET)
 2478              		.loc 1 1486 0
 2479 0022 FB68     		ldr	r3, [r7, #12]
 2480 0024 1B68     		ldr	r3, [r3]
 2481 0026 9B69     		ldr	r3, [r3, #24]
 2482 0028 03F40043 		and	r3, r3, #32768
 2483 002c 002B     		cmp	r3, #0
 2484 002e 01D0     		beq	.L123
1487:Drivers/STM32F3xx_HAL_Driver/Src/stm32f3xx_hal_i2c.c ****     {
1488:Drivers/STM32F3xx_HAL_Driver/Src/stm32f3xx_hal_i2c.c ****       return HAL_BUSY;
 2485              		.loc 1 1488 0
 2486 0030 0223     		movs	r3, #2
 2487 0032 97E0     		b	.L124
 2488              	.L123:
1489:Drivers/STM32F3xx_HAL_Driver/Src/stm32f3xx_hal_i2c.c ****     }
1490:Drivers/STM32F3xx_HAL_Driver/Src/stm32f3xx_hal_i2c.c **** 
1491:Drivers/STM32F3xx_HAL_Driver/Src/stm32f3xx_hal_i2c.c ****     /* Process Locked */
1492:Drivers/STM32F3xx_HAL_Driver/Src/stm32f3xx_hal_i2c.c ****     __HAL_LOCK(hi2c);
 2489              		.loc 1 1492 0
 2490 0034 FB68     		ldr	r3, [r7, #12]
 2491 0036 93F84030 		ldrb	r3, [r3, #64]	@ zero_extendqisi2
 2492 003a 012B     		cmp	r3, #1
 2493 003c 01D1     		bne	.L125
 2494              		.loc 1 1492 0 is_stmt 0 discriminator 1
 2495 003e 0223     		movs	r3, #2
 2496 0040 90E0     		b	.L124
 2497              	.L125:
 2498              		.loc 1 1492 0 discriminator 2
 2499 0042 FB68     		ldr	r3, [r7, #12]
 2500 0044 0122     		movs	r2, #1
 2501 0046 83F84020 		strb	r2, [r3, #64]
1493:Drivers/STM32F3xx_HAL_Driver/Src/stm32f3xx_hal_i2c.c ****     
1494:Drivers/STM32F3xx_HAL_Driver/Src/stm32f3xx_hal_i2c.c ****     hi2c->State = HAL_I2C_STATE_BUSY_RX;
 2502              		.loc 1 1494 0 is_stmt 1 discriminator 2
 2503 004a FB68     		ldr	r3, [r7, #12]
 2504 004c 2222     		movs	r2, #34
 2505 004e 83F84120 		strb	r2, [r3, #65]
1495:Drivers/STM32F3xx_HAL_Driver/Src/stm32f3xx_hal_i2c.c ****     hi2c->Mode = HAL_I2C_MODE_MASTER;
 2506              		.loc 1 1495 0 discriminator 2
 2507 0052 FB68     		ldr	r3, [r7, #12]
 2508 0054 1022     		movs	r2, #16
 2509 0056 83F84220 		strb	r2, [r3, #66]
1496:Drivers/STM32F3xx_HAL_Driver/Src/stm32f3xx_hal_i2c.c ****     hi2c->ErrorCode   = HAL_I2C_ERROR_NONE;
 2510              		.loc 1 1496 0 discriminator 2
 2511 005a FB68     		ldr	r3, [r7, #12]
 2512 005c 0022     		movs	r2, #0
 2513 005e 5A64     		str	r2, [r3, #68]
ARM GAS  /tmp/cccd70Af.s 			page 71


1497:Drivers/STM32F3xx_HAL_Driver/Src/stm32f3xx_hal_i2c.c **** 
1498:Drivers/STM32F3xx_HAL_Driver/Src/stm32f3xx_hal_i2c.c ****     /* Prepare transfer parameters */
1499:Drivers/STM32F3xx_HAL_Driver/Src/stm32f3xx_hal_i2c.c ****     hi2c->pBuffPtr = pData;
 2514              		.loc 1 1499 0 discriminator 2
 2515 0060 FB68     		ldr	r3, [r7, #12]
 2516 0062 7A68     		ldr	r2, [r7, #4]
 2517 0064 5A62     		str	r2, [r3, #36]
1500:Drivers/STM32F3xx_HAL_Driver/Src/stm32f3xx_hal_i2c.c ****     hi2c->XferCount = Size;
 2518              		.loc 1 1500 0 discriminator 2
 2519 0066 FB68     		ldr	r3, [r7, #12]
 2520 0068 3A89     		ldrh	r2, [r7, #8]	@ movhi
 2521 006a 5A85     		strh	r2, [r3, #42]	@ movhi
1501:Drivers/STM32F3xx_HAL_Driver/Src/stm32f3xx_hal_i2c.c ****     hi2c->XferOptions = I2C_NO_OPTION_FRAME;
 2522              		.loc 1 1501 0 discriminator 2
 2523 006c FB68     		ldr	r3, [r7, #12]
 2524 006e 3F4A     		ldr	r2, .L130
 2525 0070 DA62     		str	r2, [r3, #44]
1502:Drivers/STM32F3xx_HAL_Driver/Src/stm32f3xx_hal_i2c.c ****     hi2c->XferISR     = I2C_Master_ISR_DMA;
 2526              		.loc 1 1502 0 discriminator 2
 2527 0072 FB68     		ldr	r3, [r7, #12]
 2528 0074 3E4A     		ldr	r2, .L130+4
 2529 0076 5A63     		str	r2, [r3, #52]
1503:Drivers/STM32F3xx_HAL_Driver/Src/stm32f3xx_hal_i2c.c **** 
1504:Drivers/STM32F3xx_HAL_Driver/Src/stm32f3xx_hal_i2c.c ****     if(hi2c->XferCount > MAX_NBYTE_SIZE)
 2530              		.loc 1 1504 0 discriminator 2
 2531 0078 FB68     		ldr	r3, [r7, #12]
 2532 007a 5B8D     		ldrh	r3, [r3, #42]	@ movhi
 2533 007c 9BB2     		uxth	r3, r3
 2534 007e FF2B     		cmp	r3, #255
 2535 0080 06D9     		bls	.L126
1505:Drivers/STM32F3xx_HAL_Driver/Src/stm32f3xx_hal_i2c.c ****     {
1506:Drivers/STM32F3xx_HAL_Driver/Src/stm32f3xx_hal_i2c.c ****       hi2c->XferSize = MAX_NBYTE_SIZE;
 2536              		.loc 1 1506 0
 2537 0082 FB68     		ldr	r3, [r7, #12]
 2538 0084 FF22     		movs	r2, #255
 2539 0086 1A85     		strh	r2, [r3, #40]	@ movhi
1507:Drivers/STM32F3xx_HAL_Driver/Src/stm32f3xx_hal_i2c.c ****       xfermode = I2C_RELOAD_MODE;
 2540              		.loc 1 1507 0
 2541 0088 4FF08073 		mov	r3, #16777216
 2542 008c 7B61     		str	r3, [r7, #20]
 2543 008e 07E0     		b	.L127
 2544              	.L126:
1508:Drivers/STM32F3xx_HAL_Driver/Src/stm32f3xx_hal_i2c.c ****     }
1509:Drivers/STM32F3xx_HAL_Driver/Src/stm32f3xx_hal_i2c.c ****     else
1510:Drivers/STM32F3xx_HAL_Driver/Src/stm32f3xx_hal_i2c.c ****     {
1511:Drivers/STM32F3xx_HAL_Driver/Src/stm32f3xx_hal_i2c.c ****       hi2c->XferSize = hi2c->XferCount;
 2545              		.loc 1 1511 0
 2546 0090 FB68     		ldr	r3, [r7, #12]
 2547 0092 5B8D     		ldrh	r3, [r3, #42]	@ movhi
 2548 0094 9AB2     		uxth	r2, r3
 2549 0096 FB68     		ldr	r3, [r7, #12]
 2550 0098 1A85     		strh	r2, [r3, #40]	@ movhi
1512:Drivers/STM32F3xx_HAL_Driver/Src/stm32f3xx_hal_i2c.c ****       xfermode = I2C_AUTOEND_MODE;
 2551              		.loc 1 1512 0
 2552 009a 4FF00073 		mov	r3, #33554432
 2553 009e 7B61     		str	r3, [r7, #20]
 2554              	.L127:
ARM GAS  /tmp/cccd70Af.s 			page 72


1513:Drivers/STM32F3xx_HAL_Driver/Src/stm32f3xx_hal_i2c.c ****     }
1514:Drivers/STM32F3xx_HAL_Driver/Src/stm32f3xx_hal_i2c.c **** 
1515:Drivers/STM32F3xx_HAL_Driver/Src/stm32f3xx_hal_i2c.c ****     if(hi2c->XferSize > 0U)
 2555              		.loc 1 1515 0
 2556 00a0 FB68     		ldr	r3, [r7, #12]
 2557 00a2 1B8D     		ldrh	r3, [r3, #40]
 2558 00a4 002B     		cmp	r3, #0
 2559 00a6 41D0     		beq	.L128
1516:Drivers/STM32F3xx_HAL_Driver/Src/stm32f3xx_hal_i2c.c ****     {
